Archive member included because of file (symbol)

/opt/microchip/xc32/v2.40/bin/bin/../../lib/gcc/pic32mx/4.8.3/../../../../pic32mx/lib/libmchp_peripheral.a(read_core_timer_lib.o)
                              build/default/debug/delay/delay.o (ReadCoreTimer)
/opt/microchip/xc32/v2.40/bin/bin/../../lib/gcc/pic32mx/4.8.3/../../../../pic32mx/lib/libmchp_peripheral_32MX270F256B.a(soft_reset_lib.o)
                              build/default/debug/CustomHTTPApp.o (SoftReset)
/opt/microchip/xc32/v2.40/bin/bin/../../lib/gcc/pic32mx/4.8.3/../../../../pic32mx/lib/libmchp_peripheral_32MX270F256B.a(int_enable_interrupts_lib.o)
                              build/default/debug/usb/usb_device.o (INTEnableInterrupts)
/opt/microchip/xc32/v2.40/bin/bin/../../lib/gcc/pic32mx/4.8.3/../../../../pic32mx/lib/libmchp_peripheral_32MX270F256B.a(int_disable_interrupts_lib.o)
                              build/default/debug/main.o (INTDisableInterrupts)
/opt/microchip/xc32/v2.40/bin/bin/../../lib/gcc/pic32mx/4.8.3/../../../../pic32mx/lib/libmchp_peripheral_32MX270F256B.a(int_restore_interrupts_lib.o)
                              build/default/debug/main.o (INTRestoreInterrupts)
/opt/microchip/xc32/v2.40/bin/bin/../../lib/gcc/pic32mx/4.8.3/../../../../pic32mx/lib/libmchp_peripheral_32MX270F256B.a(int_enable_mv_int_lib.o)
                              build/default/debug/usb/usb_device.o (INTEnableSystemMultiVectoredInt)
/opt/microchip/xc32/v2.40/bin/bin/../../lib/gcc/pic32mx/4.8.3/../../../../pic32mx/lib/libmchp_peripheral_32MX270F256B.a(int_tbl_lib.o)
                              build/default/debug/uart/uart.o (INTClearFlag)
/opt/microchip/xc32/v2.40/bin/bin/../../lib/gcc/pic32mx/4.8.3/../../../../pic32mx/lib/libmchp_peripheral_32MX270F256B.a(rtcc_set_time_date_lib.o)
                              build/default/debug/net/SNTP.o (RtccSetTimeDate)
/opt/microchip/xc32/v2.40/bin/bin/../../lib/gcc/pic32mx/4.8.3/../../../../pic32mx/lib/libmchp_peripheral_32MX270F256B.a(nvm_erase_page_lib.o)
                              build/default/debug/nvram/nvram.o (NVMErasePage)
/opt/microchip/xc32/v2.40/bin/bin/../../lib/gcc/pic32mx/4.8.3/../../../../pic32mx/lib/libmchp_peripheral_32MX270F256B.a(nvm_operation_lib.o)
                              /opt/microchip/xc32/v2.40/bin/bin/../../lib/gcc/pic32mx/4.8.3/../../../../pic32mx/lib/libmchp_peripheral_32MX270F256B.a(nvm_erase_page_lib.o) (_NVMOperation)
/opt/microchip/xc32/v2.40/bin/bin/../../lib/gcc/pic32mx/4.8.3/../../../../pic32mx/lib/libmchp_peripheral_32MX270F256B.a(nvm_write_word_lib.o)
                              build/default/debug/nvram/nvram.o (NVMWriteWord)
/opt/microchip/xc32/v2.40/bin/bin/../../lib/gcc/pic32mx/4.8.3/../../../../pic32mx/lib/libmchp_peripheral_32MX270F256B.a(_rtcc_set_time_and_date_lib.o)
                              /opt/microchip/xc32/v2.40/bin/bin/../../lib/gcc/pic32mx/4.8.3/../../../../pic32mx/lib/libmchp_peripheral_32MX270F256B.a(rtcc_set_time_date_lib.o) (_RtccSetTimeAndDate)
/opt/microchip/xc32/v2.40/bin/bin/../../lib/gcc/pic32mx/4.8.3/../../../../pic32mx/lib/libmchp_peripheral_32MX270F256B.a(_rtcc_wait_clock_off_lib.o)
                              /opt/microchip/xc32/v2.40/bin/bin/../../lib/gcc/pic32mx/4.8.3/../../../../pic32mx/lib/libmchp_peripheral_32MX270F256B.a(_rtcc_set_time_and_date_lib.o) (_RtccWaitClockOff)
/opt/microchip/xc32/v2.40/bin/bin/../../lib/gcc/pic32mx/4.8.3/libgcc.a(_udivdi3.o)
                              build/default/debug/net/TCP.o (__udivdi3)
/opt/microchip/xc32/v2.40/bin/bin/../../lib/gcc/pic32mx/4.8.3/libgcc.a(floatunsisf.o)
                              build/default/debug/net/ENC28J60.o (__floatunsisf)
/opt/microchip/xc32/v2.40/bin/bin/../../lib/gcc/pic32mx/4.8.3/../../../../pic32mx/lib/libpic32.a(memcmp.o)
                              build/default/debug/CustomHTTPApp.o (memcmp)
/opt/microchip/xc32/v2.40/bin/bin/../../lib/gcc/pic32mx/4.8.3/../../../../pic32mx/lib/libpic32.a(memcpy.o)
                              build/default/debug/net/MPFS2.o (memcpy)
/opt/microchip/xc32/v2.40/bin/bin/../../lib/gcc/pic32mx/4.8.3/../../../../pic32mx/lib/libpic32.a(memset.o)
                              build/default/debug/config/config.o (memset)
/opt/microchip/xc32/v2.40/bin/bin/../../lib/gcc/pic32mx/4.8.3/../../../../pic32mx/lib/libpic32.a(strcmp.o)
                              build/default/debug/CustomHTTPApp.o (strcmp)
/opt/microchip/xc32/v2.40/bin/bin/../../lib/gcc/pic32mx/4.8.3/../../../../pic32mx/lib/libpic32.a(strlen.o)
                              build/default/debug/net/Helpers.o (strlen)
/opt/microchip/xc32/v2.40/bin/bin/../../lib/gcc/pic32mx/4.8.3/../../../../pic32mx/lib/libpic32.a(default-bootstrap-exception-handler.o)
                              /tmp/cc1HBx2X.o (_bootstrap_exception_handler)
/opt/microchip/xc32/v2.40/bin/bin/../../lib/gcc/pic32mx/4.8.3/../../../../pic32mx/lib/libpic32.a(default-on-reset.o)
                              /tmp/cc1HBx2X.o (_on_reset)
/opt/microchip/xc32/v2.40/bin/bin/../../lib/gcc/pic32mx/4.8.3/../../../../pic32mx/lib/libpic32.a(default-on-bootstrap.o)
                              /tmp/cc1HBx2X.o (_on_bootstrap)
/opt/microchip/xc32/v2.40/bin/bin/../../lib/gcc/pic32mx/4.8.3/../../../../pic32mx/lib/libpic32.a(default-nmi-handler.o)
                              /tmp/cc1HBx2X.o (_nmi_handler)
/opt/microchip/xc32/v2.40/bin/bin/../../lib/gcc/pic32mx/4.8.3/../../../../pic32mx/lib/libpic32.a(xc32_uart.o)
                              build/default/debug/main.o (__XC_UART)
/opt/microchip/xc32/v2.40/bin/bin/../../lib/gcc/pic32mx/4.8.3/../../../../pic32mx/lib/libpic32.a(pic32_data_init.o)
                              /tmp/cc1HBx2X.o (__pic32_data_init)
/opt/microchip/xc32/v2.40/bin/bin/../../lib/gcc/pic32mx/4.8.3/../../../../pic32mx/lib/libpic32.a(general-exception.o)
                              /tmp/cc1HBx2X.o (_general_exception_context)
/opt/microchip/xc32/v2.40/bin/bin/../../lib/gcc/pic32mx/4.8.3/../../../../pic32mx/lib/libpic32.a(vector0.o)
                              /tmp/cccJkBig.o (__vector_dispatch_0)
/opt/microchip/xc32/v2.40/bin/bin/../../lib/gcc/pic32mx/4.8.3/../../../../pic32mx/lib/libpic32.a(vector1.o)
                              /tmp/cccJkBig.o (__vector_dispatch_1)
/opt/microchip/xc32/v2.40/bin/bin/../../lib/gcc/pic32mx/4.8.3/../../../../pic32mx/lib/libpic32.a(vector2.o)
                              /tmp/cccJkBig.o (__vector_dispatch_2)
/opt/microchip/xc32/v2.40/bin/bin/../../lib/gcc/pic32mx/4.8.3/../../../../pic32mx/lib/libpic32.a(vector3.o)
                              /tmp/cccJkBig.o (__vector_dispatch_3)
/opt/microchip/xc32/v2.40/bin/bin/../../lib/gcc/pic32mx/4.8.3/../../../../pic32mx/lib/libpic32.a(vector5.o)
                              /tmp/cccJkBig.o (__vector_dispatch_5)
/opt/microchip/xc32/v2.40/bin/bin/../../lib/gcc/pic32mx/4.8.3/../../../../pic32mx/lib/libpic32.a(vector6.o)
                              /tmp/cccJkBig.o (__vector_dispatch_6)
/opt/microchip/xc32/v2.40/bin/bin/../../lib/gcc/pic32mx/4.8.3/../../../../pic32mx/lib/libpic32.a(vector7.o)
                              /tmp/cccJkBig.o (__vector_dispatch_7)
/opt/microchip/xc32/v2.40/bin/bin/../../lib/gcc/pic32mx/4.8.3/../../../../pic32mx/lib/libpic32.a(vector8.o)
                              /tmp/cccJkBig.o (__vector_dispatch_8)
/opt/microchip/xc32/v2.40/bin/bin/../../lib/gcc/pic32mx/4.8.3/../../../../pic32mx/lib/libpic32.a(vector9.o)
                              /tmp/cccJkBig.o (__vector_dispatch_9)
/opt/microchip/xc32/v2.40/bin/bin/../../lib/gcc/pic32mx/4.8.3/../../../../pic32mx/lib/libpic32.a(vector10.o)
                              /tmp/cccJkBig.o (__vector_dispatch_10)
/opt/microchip/xc32/v2.40/bin/bin/../../lib/gcc/pic32mx/4.8.3/../../../../pic32mx/lib/libpic32.a(vector11.o)
                              /tmp/cccJkBig.o (__vector_dispatch_11)
/opt/microchip/xc32/v2.40/bin/bin/../../lib/gcc/pic32mx/4.8.3/../../../../pic32mx/lib/libpic32.a(vector13.o)
                              /tmp/cccJkBig.o (__vector_dispatch_13)
/opt/microchip/xc32/v2.40/bin/bin/../../lib/gcc/pic32mx/4.8.3/../../../../pic32mx/lib/libpic32.a(vector14.o)
                              /tmp/cccJkBig.o (__vector_dispatch_14)
/opt/microchip/xc32/v2.40/bin/bin/../../lib/gcc/pic32mx/4.8.3/../../../../pic32mx/lib/libpic32.a(vector15.o)
                              /tmp/cccJkBig.o (__vector_dispatch_15)
/opt/microchip/xc32/v2.40/bin/bin/../../lib/gcc/pic32mx/4.8.3/../../../../pic32mx/lib/libpic32.a(vector16.o)
                              /tmp/cccJkBig.o (__vector_dispatch_16)
/opt/microchip/xc32/v2.40/bin/bin/../../lib/gcc/pic32mx/4.8.3/../../../../pic32mx/lib/libpic32.a(vector17.o)
                              /tmp/cccJkBig.o (__vector_dispatch_17)
/opt/microchip/xc32/v2.40/bin/bin/../../lib/gcc/pic32mx/4.8.3/../../../../pic32mx/lib/libpic32.a(vector18.o)
                              /tmp/cccJkBig.o (__vector_dispatch_18)
/opt/microchip/xc32/v2.40/bin/bin/../../lib/gcc/pic32mx/4.8.3/../../../../pic32mx/lib/libpic32.a(vector19.o)
                              /tmp/cccJkBig.o (__vector_dispatch_19)
/opt/microchip/xc32/v2.40/bin/bin/../../lib/gcc/pic32mx/4.8.3/../../../../pic32mx/lib/libpic32.a(vector20.o)
                              /tmp/cccJkBig.o (__vector_dispatch_20)
/opt/microchip/xc32/v2.40/bin/bin/../../lib/gcc/pic32mx/4.8.3/../../../../pic32mx/lib/libpic32.a(vector21.o)
                              /tmp/cccJkBig.o (__vector_dispatch_21)
/opt/microchip/xc32/v2.40/bin/bin/../../lib/gcc/pic32mx/4.8.3/../../../../pic32mx/lib/libpic32.a(vector22.o)
                              /tmp/cccJkBig.o (__vector_dispatch_22)
/opt/microchip/xc32/v2.40/bin/bin/../../lib/gcc/pic32mx/4.8.3/../../../../pic32mx/lib/libpic32.a(vector23.o)
                              /tmp/cccJkBig.o (__vector_dispatch_23)
/opt/microchip/xc32/v2.40/bin/bin/../../lib/gcc/pic32mx/4.8.3/../../../../pic32mx/lib/libpic32.a(vector24.o)
                              /tmp/cccJkBig.o (__vector_dispatch_24)
/opt/microchip/xc32/v2.40/bin/bin/../../lib/gcc/pic32mx/4.8.3/../../../../pic32mx/lib/libpic32.a(vector25.o)
                              /tmp/cccJkBig.o (__vector_dispatch_25)
/opt/microchip/xc32/v2.40/bin/bin/../../lib/gcc/pic32mx/4.8.3/../../../../pic32mx/lib/libpic32.a(vector26.o)
                              /tmp/cccJkBig.o (__vector_dispatch_26)
/opt/microchip/xc32/v2.40/bin/bin/../../lib/gcc/pic32mx/4.8.3/../../../../pic32mx/lib/libpic32.a(vector27.o)
                              /tmp/cccJkBig.o (__vector_dispatch_27)
/opt/microchip/xc32/v2.40/bin/bin/../../lib/gcc/pic32mx/4.8.3/../../../../pic32mx/lib/libpic32.a(vector28.o)
                              /tmp/cccJkBig.o (__vector_dispatch_28)
/opt/microchip/xc32/v2.40/bin/bin/../../lib/gcc/pic32mx/4.8.3/../../../../pic32mx/lib/libpic32.a(vector29.o)
                              /tmp/cccJkBig.o (__vector_dispatch_29)
/opt/microchip/xc32/v2.40/bin/bin/../../lib/gcc/pic32mx/4.8.3/../../../../pic32mx/lib/libpic32.a(vector31.o)
                              /tmp/cccJkBig.o (__vector_dispatch_31)
/opt/microchip/xc32/v2.40/bin/bin/../../lib/gcc/pic32mx/4.8.3/../../../../pic32mx/lib/libpic32.a(vector33.o)
                              /tmp/cccJkBig.o (__vector_dispatch_33)
/opt/microchip/xc32/v2.40/bin/bin/../../lib/gcc/pic32mx/4.8.3/../../../../pic32mx/lib/libpic32.a(vector34.o)
                              /tmp/cccJkBig.o (__vector_dispatch_34)
/opt/microchip/xc32/v2.40/bin/bin/../../lib/gcc/pic32mx/4.8.3/../../../../pic32mx/lib/libpic32.a(vector35.o)
                              /tmp/cccJkBig.o (__vector_dispatch_35)
/opt/microchip/xc32/v2.40/bin/bin/../../lib/gcc/pic32mx/4.8.3/../../../../pic32mx/lib/libpic32.a(vector36.o)
                              /tmp/cccJkBig.o (__vector_dispatch_36)
/opt/microchip/xc32/v2.40/bin/bin/../../lib/gcc/pic32mx/4.8.3/../../../../pic32mx/lib/libpic32.a(vector38.o)
                              /tmp/cccJkBig.o (__vector_dispatch_38)
/opt/microchip/xc32/v2.40/bin/bin/../../lib/gcc/pic32mx/4.8.3/../../../../pic32mx/lib/libpic32.a(vector39.o)
                              /tmp/cccJkBig.o (__vector_dispatch_39)
/opt/microchip/xc32/v2.40/bin/bin/../../lib/gcc/pic32mx/4.8.3/../../../../pic32mx/lib/libpic32.a(vector40.o)
                              /tmp/cccJkBig.o (__vector_dispatch_40)
/opt/microchip/xc32/v2.40/bin/bin/../../lib/gcc/pic32mx/4.8.3/../../../../pic32mx/lib/libpic32.a(vector41.o)
                              /tmp/cccJkBig.o (__vector_dispatch_41)
/opt/microchip/xc32/v2.40/bin/bin/../../lib/gcc/pic32mx/4.8.3/../../../../pic32mx/lib/libpic32.a(vector42.o)
                              /tmp/cccJkBig.o (__vector_dispatch_42)
/opt/microchip/xc32/v2.40/bin/bin/../../lib/gcc/pic32mx/4.8.3/../../../../pic32mx/lib/libpic32.a(vector43.o)
                              /tmp/cccJkBig.o (__vector_dispatch_43)
/opt/microchip/xc32/v2.40/bin/bin/../../lib/gcc/pic32mx/4.8.3/../../../../pic32mx/lib/libpic32.a(defaultinterrupt.o)
                              /opt/microchip/xc32/v2.40/bin/bin/../../lib/gcc/pic32mx/4.8.3/../../../../pic32mx/lib/libpic32.a(vector0.o) (_DefaultInterrupt)
/opt/microchip/xc32/v2.40/bin/bin/../../lib/gcc/pic32mx/4.8.3/../../../../pic32mx/lib/libc.a(atoi.o)
                              build/default/debug/CustomHTTPApp.o (atoi)
/opt/microchip/xc32/v2.40/bin/bin/../../lib/gcc/pic32mx/4.8.3/../../../../pic32mx/lib/libc.a(atol.o)
                              build/default/debug/net/HTTP2.o (atol)
/opt/microchip/xc32/v2.40/bin/bin/../../lib/gcc/pic32mx/4.8.3/../../../../pic32mx/lib/libc.a(ctime.o)
                              build/default/debug/net/SNTP.o (gmtime)
/opt/microchip/xc32/v2.40/bin/bin/../../lib/gcc/pic32mx/4.8.3/../../../../pic32mx/lib/libc.a(ctype.o)
                              build/default/debug/common.o (_ctype)
/opt/microchip/xc32/v2.40/bin/bin/../../lib/gcc/pic32mx/4.8.3/../../../../pic32mx/lib/libc.a(mktime.o)
                              build/default/debug/time/time.o (mktime)
/opt/microchip/xc32/v2.40/bin/bin/../../lib/gcc/pic32mx/4.8.3/../../../../pic32mx/lib/libc.a(puts.o)
                              build/default/debug/net/ENC28J60.o (puts)
/opt/microchip/xc32/v2.40/bin/bin/../../lib/gcc/pic32mx/4.8.3/../../../../pic32mx/lib/libc.a(rand.o)
                              build/default/debug/CustomHTTPApp.o (rand)
/opt/microchip/xc32/v2.40/bin/bin/../../lib/gcc/pic32mx/4.8.3/../../../../pic32mx/lib/libc.a(strncpy.o)
                              build/default/debug/CustomHTTPApp.o (strncpy)
/opt/microchip/xc32/v2.40/bin/bin/../../lib/gcc/pic32mx/4.8.3/../../../../pic32mx/lib/libc.a(printf_cdfFnopuxX.eo)
                              build/default/debug/net/ENC28J60.o (_printf_cdfFnopuxX)
/opt/microchip/xc32/v2.40/bin/bin/../../lib/gcc/pic32mx/4.8.3/../../../../pic32mx/lib/libc.a(printf_cdnopuxX.eo)
                              build/default/debug/usb/event.o (_printf_cdnopuxX)
/opt/microchip/xc32/v2.40/bin/bin/../../lib/gcc/pic32mx/4.8.3/../../../../pic32mx/lib/libc.a(snprintf_cdnopuxX.eo)
                              build/default/debug/CustomHTTPApp.o (_snprintf_cdnopuxX)
/opt/microchip/xc32/v2.40/bin/bin/../../lib/gcc/pic32mx/4.8.3/../../../../pic32mx/lib/libc.a(sprintf_cdnopsuxX.eo)
                              build/default/debug/CustomHTTPApp.o (_sprintf_cdnopsuxX)
/opt/microchip/xc32/v2.40/bin/bin/../../lib/gcc/pic32mx/4.8.3/../../../../pic32mx/lib/libc.a(sprintf_cdnopuxX.eo)
                              build/default/debug/CustomHTTPApp.o (_sprintf_cdnopuxX)
/opt/microchip/xc32/v2.40/bin/bin/../../lib/gcc/pic32mx/4.8.3/../../../../pic32mx/lib/libc.a(sscanf_cdnopuxX.eo)
                              build/default/debug/common.o (_sscanf_cdnopuxX)
/opt/microchip/xc32/v2.40/bin/bin/../../lib/gcc/pic32mx/4.8.3/../../../../pic32mx/lib/libc.a(vsnprintf_cdnopuxX.eo)
                              /opt/microchip/xc32/v2.40/bin/bin/../../lib/gcc/pic32mx/4.8.3/../../../../pic32mx/lib/libc.a(snprintf_cdnopuxX.eo) (_vsnprintf_cdnopuxX)
/opt/microchip/xc32/v2.40/bin/bin/../../lib/gcc/pic32mx/4.8.3/../../../../pic32mx/lib/libc.a(_iob.o)
                              /opt/microchip/xc32/v2.40/bin/bin/../../lib/gcc/pic32mx/4.8.3/../../../../pic32mx/lib/libc.a(puts.o) (_iob)
/opt/microchip/xc32/v2.40/bin/bin/../../lib/gcc/pic32mx/4.8.3/../../../../pic32mx/lib/libc.a(_fputc_simple.o)
                              /opt/microchip/xc32/v2.40/bin/bin/../../lib/gcc/pic32mx/4.8.3/../../../../pic32mx/lib/libc.a(puts.o) (fputc)
/opt/microchip/xc32/v2.40/bin/bin/../../lib/gcc/pic32mx/4.8.3/../../../../pic32mx/lib/libc.a(doprnt_cdfFnopuxX.eo)
                              /opt/microchip/xc32/v2.40/bin/bin/../../lib/gcc/pic32mx/4.8.3/../../../../pic32mx/lib/libc.a(printf_cdfFnopuxX.eo) (_vfprintf_cdfFnopuxX)
/opt/microchip/xc32/v2.40/bin/bin/../../lib/gcc/pic32mx/4.8.3/../../../../pic32mx/lib/libc.a(doprnt_cdnopsuxX.eo)
                              /opt/microchip/xc32/v2.40/bin/bin/../../lib/gcc/pic32mx/4.8.3/../../../../pic32mx/lib/libc.a(sprintf_cdnopsuxX.eo) (_vfprintf_cdnopsuxX)
/opt/microchip/xc32/v2.40/bin/bin/../../lib/gcc/pic32mx/4.8.3/../../../../pic32mx/lib/libc.a(doprnt_cdnopuxX.eo)
                              /opt/microchip/xc32/v2.40/bin/bin/../../lib/gcc/pic32mx/4.8.3/../../../../pic32mx/lib/libc.a(printf_cdnopuxX.eo) (_vfprintf_cdnopuxX)
/opt/microchip/xc32/v2.40/bin/bin/../../lib/gcc/pic32mx/4.8.3/../../../../pic32mx/lib/libc.a(doscan_cdnopuxX.eo)
                              /opt/microchip/xc32/v2.40/bin/bin/../../lib/gcc/pic32mx/4.8.3/../../../../pic32mx/lib/libc.a(sscanf_cdnopuxX.eo) (_vfscanf_cdnopuxX)
/opt/microchip/xc32/v2.40/bin/bin/../../lib/gcc/pic32mx/4.8.3/../../../../pic32mx/lib/libc.a(_flsbuf_simple.o)
                              /opt/microchip/xc32/v2.40/bin/bin/../../lib/gcc/pic32mx/4.8.3/../../../../pic32mx/lib/libc.a(_fputc_simple.o) (_flsbuf)
/opt/microchip/xc32/v2.40/bin/bin/../../lib/gcc/pic32mx/4.8.3/../../../../pic32mx/lib/libc.a(fgetc.o)
                              /opt/microchip/xc32/v2.40/bin/bin/../../lib/gcc/pic32mx/4.8.3/../../../../pic32mx/lib/libc.a(doscan_cdnopuxX.eo) (fgetc)
/opt/microchip/xc32/v2.40/bin/bin/../../lib/gcc/pic32mx/4.8.3/../../../../pic32mx/lib/libc.a(ctypef.o)
                              /opt/microchip/xc32/v2.40/bin/bin/../../lib/gcc/pic32mx/4.8.3/../../../../pic32mx/lib/libc.a(doscan_cdnopuxX.eo) (tolower)
/opt/microchip/xc32/v2.40/bin/bin/../../lib/gcc/pic32mx/4.8.3/../../../../pic32mx/lib/libc.a(ldpowers.o)
                              /opt/microchip/xc32/v2.40/bin/bin/../../lib/gcc/pic32mx/4.8.3/../../../../pic32mx/lib/libc.a(doprnt_cdfFnopuxX.eo) (_npowers_)
/opt/microchip/xc32/v2.40/bin/bin/../../lib/gcc/pic32mx/4.8.3/../../../../pic32mx/lib/libc.a(ungetc.o)
                              /opt/microchip/xc32/v2.40/bin/bin/../../lib/gcc/pic32mx/4.8.3/../../../../pic32mx/lib/libc.a(doscan_cdnopuxX.eo) (ungetc)
/opt/microchip/xc32/v2.40/bin/bin/../../lib/gcc/pic32mx/4.8.3/../../../../pic32mx/lib/libc.a(filbuf.o)
                              /opt/microchip/xc32/v2.40/bin/bin/../../lib/gcc/pic32mx/4.8.3/../../../../pic32mx/lib/libc.a(fgetc.o) (_filbuf)
/opt/microchip/xc32/v2.40/bin/bin/../../lib/gcc/pic32mx/4.8.3/../../../../pic32mx/lib/libc.a(fflush.o)
                              /opt/microchip/xc32/v2.40/bin/bin/../../lib/gcc/pic32mx/4.8.3/../../../../pic32mx/lib/libc.a(filbuf.o) (fflush)
/opt/microchip/xc32/v2.40/bin/bin/../../lib/gcc/pic32mx/4.8.3/../../../../pic32mx/lib/libc.a(doprnt_cdfFnopsuxX.eo)
                              (_vfprintf_cdfFnopsuxX)
/opt/microchip/xc32/v2.40/bin/bin/../../lib/gcc/pic32mx/4.8.3/../../../../pic32mx/lib/libm.a(dpfrexp.o)
                              /opt/microchip/xc32/v2.40/bin/bin/../../lib/gcc/pic32mx/4.8.3/../../../../pic32mx/lib/libc.a(doprnt_cdfFnopuxX.eo) (frexpl)
/opt/microchip/xc32/v2.40/bin/bin/../../lib/gcc/pic32mx/4.8.3/../../../../pic32mx/lib/libm.a(dp32div.o)
                              /opt/microchip/xc32/v2.40/bin/bin/../../lib/gcc/pic32mx/4.8.3/../../../../pic32mx/lib/libc.a(doprnt_cdfFnopuxX.eo) (dpdiv)
/opt/microchip/xc32/v2.40/bin/bin/../../lib/gcc/pic32mx/4.8.3/../../../../pic32mx/lib/libm.a(dp32mul.o)
                              /opt/microchip/xc32/v2.40/bin/bin/../../lib/gcc/pic32mx/4.8.3/../../../../pic32mx/lib/libc.a(doprnt_cdfFnopuxX.eo) (dpmul)
/opt/microchip/xc32/v2.40/bin/bin/../../lib/gcc/pic32mx/4.8.3/../../../../pic32mx/lib/libm.a(dp32subadd.o)
                              /opt/microchip/xc32/v2.40/bin/bin/../../lib/gcc/pic32mx/4.8.3/../../../../pic32mx/lib/libc.a(doprnt_cdfFnopuxX.eo) (dpsub)
/opt/microchip/xc32/v2.40/bin/bin/../../lib/gcc/pic32mx/4.8.3/../../../../pic32mx/lib/libm.a(dpcmp.o)
                              /opt/microchip/xc32/v2.40/bin/bin/../../lib/gcc/pic32mx/4.8.3/../../../../pic32mx/lib/libc.a(doprnt_cdfFnopuxX.eo) (dpcmp)
/opt/microchip/xc32/v2.40/bin/bin/../../lib/gcc/pic32mx/4.8.3/../../../../pic32mx/lib/libm.a(fp32div.o)
                              build/default/debug/net/ENC28J60.o (fpdiv)
/opt/microchip/xc32/v2.40/bin/bin/../../lib/gcc/pic32mx/4.8.3/../../../../pic32mx/lib/libm.a(fp32subadd.o)
                              /opt/microchip/xc32/v2.40/bin/bin/../../lib/gcc/pic32mx/4.8.3/libgcc.a(floatunsisf.o) (fpadd)
/opt/microchip/xc32/v2.40/bin/bin/../../lib/gcc/pic32mx/4.8.3/../../../../pic32mx/lib/libm.a(fptodp.o)
                              build/default/debug/net/ENC28J60.o (fptodp)
/opt/microchip/xc32/v2.40/bin/bin/../../lib/gcc/pic32mx/4.8.3/../../../../pic32mx/lib/libm.a(sitofp.o)
                              /opt/microchip/xc32/v2.40/bin/bin/../../lib/gcc/pic32mx/4.8.3/libgcc.a(floatunsisf.o) (sitofp)
/opt/microchip/xc32/v2.40/bin/bin/../../lib/gcc/pic32mx/4.8.3/../../../../pic32mx/lib/libe.a(_fixunsdfdi.o)
                              /opt/microchip/xc32/v2.40/bin/bin/../../lib/gcc/pic32mx/4.8.3/../../../../pic32mx/lib/libc.a(doprnt_cdfFnopuxX.eo) (__fixunsdfdi)
/opt/microchip/xc32/v2.40/bin/bin/../../lib/gcc/pic32mx/4.8.3/../../../../pic32mx/lib/libe.a(_orderdf2.o)
                              /opt/microchip/xc32/v2.40/bin/bin/../../lib/gcc/pic32mx/4.8.3/../../../../pic32mx/lib/libe.a(_fixunsdfdi.o) (__orderdf2)
/opt/microchip/xc32/v2.40/bin/bin/../../lib/gcc/pic32mx/4.8.3/../../../../pic32mx/lib/libe.a(_fixdfdi.o)
                              /opt/microchip/xc32/v2.40/bin/bin/../../lib/gcc/pic32mx/4.8.3/../../../../pic32mx/lib/libe.a(_fixunsdfdi.o) (__fixdfdi)
/opt/microchip/xc32/v2.40/bin/bin/../../lib/gcc/pic32mx/4.8.3/libgcc.a(_floatundidf.o)
                              /opt/microchip/xc32/v2.40/bin/bin/../../lib/gcc/pic32mx/4.8.3/../../../../pic32mx/lib/libc.a(doprnt_cdfFnopuxX.eo) (__floatundidf)
/opt/microchip/xc32/v2.40/bin/bin/../../lib/gcc/pic32mx/4.8.3/libgcc.a(_umoddi3.o)
                              /opt/microchip/xc32/v2.40/bin/bin/../../lib/gcc/pic32mx/4.8.3/../../../../pic32mx/lib/libc.a(doprnt_cdfFnopuxX.eo) (__umoddi3)
/opt/microchip/xc32/v2.40/bin/bin/../../lib/gcc/pic32mx/4.8.3/libgcc.a(floatunsidf.o)
                              /opt/microchip/xc32/v2.40/bin/bin/../../lib/gcc/pic32mx/4.8.3/libgcc.a(_floatundidf.o) (__floatunsidf)
/opt/microchip/xc32/v2.40/bin/bin/../../lib/gcc/pic32mx/4.8.3/../../../../pic32mx/lib/libpic32.a(read.o)
                              /opt/microchip/xc32/v2.40/bin/bin/../../lib/gcc/pic32mx/4.8.3/../../../../pic32mx/lib/libc.a(filbuf.o) (read)
/opt/microchip/xc32/v2.40/bin/bin/../../lib/gcc/pic32mx/4.8.3/../../../../pic32mx/lib/libpic32.a(write.o)
                              /opt/microchip/xc32/v2.40/bin/bin/../../lib/gcc/pic32mx/4.8.3/../../../../pic32mx/lib/libc.a(_fputc_simple.o) (write)
/opt/microchip/xc32/v2.40/bin/bin/../../lib/gcc/pic32mx/4.8.3/../../../../pic32mx/lib/libpic32.a(_mon_putc.o)
                              /opt/microchip/xc32/v2.40/bin/bin/../../lib/gcc/pic32mx/4.8.3/../../../../pic32mx/lib/libpic32.a(write.o) (_mon_putc)
/opt/microchip/xc32/v2.40/bin/bin/../../lib/gcc/pic32mx/4.8.3/../../../../pic32mx/lib/libm.a(litodp.o)
                              /opt/microchip/xc32/v2.40/bin/bin/../../lib/gcc/pic32mx/4.8.3/libgcc.a(floatunsidf.o) (litodp)

Allocating common symbols
Common symbol       size              file

pDst                0x4               build/default/debug/usb/usb_device.o
UDPTxCount          0x2               build/default/debug/net/UDP.o
curHTTP             0x8c              build/default/debug/net/HTTP2.o
control_signal_bitmap
                    0x4               build/default/debug/usb/usb_function_cdc.o
USBDeferINDataStagePackets
                    0x4               build/default/debug/usb/usb_device.o
BDT                 0x60              build/default/debug/usb/usb_device.o
CtrlTrfData         0x8               build/default/debug/usb/usb_device.o
USBDeferOUTDataStagePackets
                    0x4               build/default/debug/usb/usb_device.o
USBDeviceState      0x4               build/default/debug/usb/usb_device.o
controlTransferState
                    0x1               build/default/debug/usb/usb_device.o
cdc_tx_len          0x1               build/default/debug/usb/usb_function_cdc.o
endpoint_number     0x1               build/default/debug/usb/usb_device.o
pCDCSrc             0x4               build/default/debug/usb/usb_function_cdc.o
cdc_data_tx         0x40              build/default/debug/usb/usb_function_cdc.o
inPipes             0x10              build/default/debug/usb/usb_device.o
pBDTEntryIn         0xc               build/default/debug/usb/usb_device.o
CDCDataOutHandle    0x4               build/default/debug/usb/usb_function_cdc.o
cdc_rx_len          0x1               build/default/debug/usb/usb_function_cdc.o
activeUDPSocket     0x1               build/default/debug/net/UDP.o
line_coding         0x8               build/default/debug/usb/usb_function_cdc.o
ep_data_out         0x3               build/default/debug/usb/usb_device.o
curHTTPID           0x1               build/default/debug/net/HTTP2.o
remoteNode          0xa               build/default/debug/net/StackTsk.o
debug_UART_RxBuf    0x40              build/default/debug/uart/debug_uart.o
USBStatusStageEnabledFlag1
                    0x4               build/default/debug/usb/usb_device.o
buffer              0x80              build/default/debug/main.o
BaudRateGen         0x4               build/default/debug/usb/usb_function_cdc.o
USBStatusStageEnabledFlag2
                    0x4               build/default/debug/usb/usb_device.o
pBDTEntryOut        0xc               build/default/debug/usb/usb_device.o
CDCDataInHandle     0x4               build/default/debug/usb/usb_function_cdc.o
BothEP0OutUOWNsSet  0x4               build/default/debug/usb/usb_device.o
cdc_data_rx         0x40              build/default/debug/usb/usb_function_cdc.o
cdc_notice          0xa               build/default/debug/usb/usb_function_cdc.o
pBDTEntryEP0OutNext
                    0x4               build/default/debug/usb/usb_device.o
USBBusIsSuspended   0x4               build/default/debug/usb/usb_device.o
AppConfig           0x71              build/default/debug/config/config.o
USBStatusStageTimeoutCounter
                    0x1               build/default/debug/usb/usb_device.o
cdc_trf_state       0x1               build/default/debug/usb/usb_function_cdc.o
UDPRxCount          0x2               build/default/debug/net/UDP.o
SetupPkt            0x8               build/default/debug/usb/usb_device.o
debug_UART_RxHead   0x2               build/default/debug/uart/debug_uart.o
pCDCDst             0x4               build/default/debug/usb/usb_function_cdc.o
cdc_mem_type        0x1               build/default/debug/usb/usb_function_cdc.o
ep_data_in          0x3               build/default/debug/usb/usb_device.o
debug_UART_RxTail   0x2               build/default/debug/uart/debug_uart.o
shortPacketStatus   0x1               build/default/debug/usb/usb_device.o
pBDTEntryEP0OutCurrent
                    0x4               build/default/debug/usb/usb_device.o
USBActiveConfiguration
                    0x1               build/default/debug/usb/usb_device.o
RemoteWakeup        0x4               build/default/debug/usb/usb_device.o
debug_ascii_line    0x1               build/default/debug/uart/debug_uart.o
FatFS               0x1038            build/default/debug/main.o
UDPSocketInfo       0x8c              build/default/debug/net/UDP.o
UART_RxHead         0x2               build/default/debug/uart/uart.o
USTATcopy           0x1               build/default/debug/usb/usb_device.o
httpStubs           0x28              build/default/debug/net/HTTP2.o
UART_RxTail         0x2               build/default/debug/uart/uart.o
USBAlternateInterface
                    0x2               build/default/debug/usb/usb_device.o
outPipes            0xb               build/default/debug/usb/usb_device.o
dummy_encapsulated_cmd_response
                    0x8               build/default/debug/usb/usb_function_cdc.o
token               0x9               build/default/debug/CustomHTTPApp.o
tcpneedReset        0x1               build/default/debug/net/ENC28J60.o
USBDeferStatusStagePacket
                    0x4               build/default/debug/usb/usb_device.o
config              0x95              build/default/debug/config/config.o
UART_RxBuf          0x100             build/default/debug/uart/uart.o

Microchip PIC32 Memory-Usage Report

kseg0 Program-Memory Usage
section                    address  length [bytes]      (dec)  Description
-------                 ----------  -------------------------  -----------
.text                   0x9d000000         0x9f68       40808  App's exec code 
.rodata                 0x9d009f68         0x485c       18524  Read-only const 
.text                   0x9d00e7c4         0x4100       16640  App's exec code 
.text                   0x9d0128c4         0x33fc       13308  App's exec code 
.text._vfprintf_cdfFnop 0x9d015cc0         0x1550        5456   
.text                   0x9d017210         0x1cdc        7388  App's exec code 
.text                   0x9d018eec         0x1708        5896  App's exec code 
.text                   0x9d01a5f4         0x149c        5276  App's exec code 
.text._vfscanf_cdnopuxX 0x9d01ba90          0x908        2312   
.text                   0x9d01c398          0xd98        3480  App's exec code 
.rodata                 0x9d01d130          0x57c        1404  Read-only const 
.text                   0x9d01d6ac          0x564        1380  App's exec code 
.rodata                 0x9d01dc10          0x558        1368  Read-only const 
.text.dp32mul           0x9d01e168          0x4b8        1208   
.text                   0x9d01e620          0x8bc        2236  App's exec code 
.text.dp32subadd        0x9d01eedc          0x430        1072   
.text                   0x9d01f30c          0x3d4         980  App's exec code 
.rodata                 0x9d01f6e0          0x3b0         944  Read-only const 
.text                   0x9d01fa90          0x378         888  App's exec code 
.text.dp32mul           0x9d01fe08          0x32c         812   
.dinit                  0x9d020134          0x300         768   
.text                   0x9d020434          0x2f4         756  App's exec code 
.text.asctime           0x9d020728          0x2e4         740   
.text                   0x9d020a0c          0x570        1392  App's exec code 
.text                   0x9d020f7c          0x2a8         680  App's exec code 
.text.fpsubadd          0x9d021224          0x278         632   
.text._RtccSetTimeAndDa 0x9d02149c          0x23c         572   
.text                   0x9d0216d8          0x234         564  App's exec code 
.text.scale             0x9d02190c          0x230         560   
.text.fp32div           0x9d021b3c          0x230         560   
.text                   0x9d021d6c          0x424        1060  App's exec code 
.rodata                 0x9d022190          0x3ec        1004  Read-only const 
.rodata                 0x9d02257c          0x1e8         488  Read-only const 
.text.mktime            0x9d022764          0x1e4         484   
.text                   0x9d022948          0x384         900  App's exec code 
.text                   0x9d022ccc          0x18c         396  App's exec code 
.text._filbuf           0x9d022e58          0x188         392   
.text.gmtime            0x9d022fe0          0x180         384   
.text                   0x9d023160          0x2d0         720  App's exec code 
.rodata                 0x9d023430          0x160         352  Read-only const 
.text                   0x9d023590          0x158         344  App's exec code 
.text.read              0x9d0236e8          0x14c         332   
.text.fputc             0x9d023834          0x144         324   
.rodata                 0x9d023978          0x13c         316  Read-only const 
.text._flsbuf           0x9d023ab4          0x12c         300   
.text.dpcmp             0x9d023be0          0x12c         300   
.text                   0x9d023d0c          0x234         564  App's exec code 
.text._NVMOperation     0x9d023f40          0x114         276   
.rodata                 0x9d024054          0x104         260  Read-only const 
.text                   0x9d024158          0x104         260  App's exec code 
.rodata                 0x9d02425c          0x104         260  Read-only const 
.text.fgetc             0x9d024360          0x104         260   
.text._RtccWaitClockOff 0x9d024464           0xfc         252   
.text                   0x9d024560           0xf4         244  App's exec code 
.rodata                 0x9d024658           0xf0         240  Read-only const 
.text.__fixdfdi         0x9d024748           0xe8         232   
.text.general_exception 0x9d024830           0xdc         220   
.text._mon_putc         0x9d02490c           0xd8         216   
.rodata                 0x9d0249e4           0xd4         212  Read-only const 
.text.atol              0x9d024ab8           0xac         172   
.text.fptodp            0x9d024b64           0xac         172   
.text                   0x9d024c10           0xa8         168  App's exec code 
.text.atoi              0x9d024cb8           0xa8         168   
.text.range             0x9d024d60           0xa8         168   
.text.libm              0x9d024e08           0xa8         168   
.text.fflush            0x9d024eb0           0xa0         160   
.text.write             0x9d024f50           0x9c         156   
.text                   0x9d024fec           0x98         152  App's exec code 
.text.rand              0x9d025084           0x8c         140   
.text.__orderdf2        0x9d025110           0x8c         140   
.text                   0x9d02519c           0x84         132  App's exec code 
.text._vsnprintf_cdnopu 0x9d025220           0x84         132   
.text.__fixunsdfdi      0x9d0252a4           0x80         128   
.text.SoftReset         0x9d025324           0x7c         124   
.text.litodp            0x9d0253a0           0x78         120   
.text.strncpy           0x9d025418           0x74         116   
.text.ungetc            0x9d02548c           0x74         116   
.text.dylen.part.0      0x9d025500           0x68         104   
.text._sprintf_cdnopsux 0x9d025568           0x68         104   
.text                   0x9d0255d0           0x64         100  App's exec code 
.text.fputs             0x9d025634           0x60          96   
.text.wspace            0x9d025694           0x60          96   
.text.sitofp            0x9d0256f4           0x60          96   
.text.main_entry        0x9d025754           0x54          84   
.text._sscanf_cdnopuxX  0x9d0257a8           0x54          84   
.text                   0x9d0257fc           0x4c          76  App's exec code 
.rodata                 0x9d025848           0x4c          76  Read-only const 
.text._bootstrap_except 0x9d025894           0x48          72   
.vector_default         0x9d0258dc           0x48          72   
.text                   0x9d025924           0x44          68  App's exec code 
.text.ctime             0x9d025968           0x44          68   
.text.puts              0x9d0259ac           0x44          68   
.text                   0x9d0259f0           0x44          68  App's exec code 
.rodata                 0x9d025a34           0x40          64  Read-only const 
.text.INTSetVectorPrior 0x9d025a74           0x40          64   
.text.INTSetVectorSubPr 0x9d025ab4           0x40          64   
.text._printf_cdfFnopux 0x9d025af4           0x40          64   
.text.INTEnable         0x9d025b34           0x3c          60   
.text.localtime         0x9d025b70           0x3c          60   
.text.INTEnableSystemMu 0x9d025bac           0x34          52   
.text.NVMWriteWord      0x9d025be0           0x34          52   
.text.INTGetVectorPrior 0x9d025c14           0x30          48   
.text.INTGetVectorSubPr 0x9d025c44           0x30          48   
.text.INTClearFlag      0x9d025c74           0x2c          44   
.text.INTSetFlag        0x9d025ca0           0x2c          44   
.text.INTGetFlag        0x9d025ccc           0x2c          44   
.text.INTGetEnable      0x9d025cf8           0x2c          44   
.text.NVMErasePage      0x9d025d24           0x2c          44   
.text.RtccSetTimeDate   0x9d025d50           0x28          40   
.text._snprintf_cdnopux 0x9d025d78           0x28          40   
.rodata                 0x9d025da0           0x24          36  Read-only const 
.text.tolower           0x9d025dc4           0x24          36   
.text.toupper           0x9d025de8           0x24          36   
.text.INTRestoreInterru 0x9d025e0c           0x1c          28   
.text.srand             0x9d025e28           0x1c          28   
.text                   0x9d025e44           0x18          24  App's exec code 
.text.isalnum           0x9d025e5c           0x18          24   
.text.isalpha           0x9d025e74           0x18          24   
.text.iscntrl           0x9d025e8c           0x18          24   
.text.isdigit           0x9d025ea4           0x18          24   
.text.isgraph           0x9d025ebc           0x18          24   
.text.islower           0x9d025ed4           0x18          24   
.text.isprint           0x9d025eec           0x18          24   
.text.ispunct           0x9d025f04           0x18          24   
.text.isspace           0x9d025f1c           0x18          24   
.text.isupper           0x9d025f34           0x18          24   
.text.isxdigit          0x9d025f4c           0x18          24   
.rodata                 0x9d025f64           0x14          20  Read-only const 
.text._RtccSetClockWait 0x9d025f78           0x14          20   
.rodata                 0x9d025f8c            0x8           8  Read-only const 
.text.ReadCoreTimer     0x9d025f94            0x8           8   
.text.INTEnableInterrup 0x9d025f9c            0x8           8   
.text.INTDisableInterru 0x9d025fa4            0x8           8   
.text._on_reset         0x9d025fac            0x8           8   
.text._on_bootstrap     0x9d025fb4            0x8           8   
.text.isascii           0x9d025fbc            0x8           8   
.text.toascii           0x9d025fc4            0x8           8   
.text._tolower          0x9d025fcc            0x8           8   
.text._toupper          0x9d025fd4            0x8           8   
.rodata                 0x9d025fe0           0x10          16  Read-only const 
      Total kseg0_program_mem used  :     0x25fe8      155624  60.3% of 0x3f000

kseg0 Boot-Memory Usage
section                    address  length [bytes]      (dec)  Description
-------                 ----------  -------------------------  -----------
         Total kseg0_boot_mem used  :           0           0  

Exception-Memory Usage 
section                    address  length [bytes]      (dec)  Description
-------                 ----------  -------------------------  -----------
.app_excpt              0x9d03f180           0x10          16  General-Exception 
.vector_0               0x9d03f200            0x8           8  Interrupt Vector 0 
.vector_1               0x9d03f220            0x8           8  Interrupt Vector 1 
.vector_2               0x9d03f240            0x8           8  Interrupt Vector 2 
.vector_3               0x9d03f260            0x8           8  Interrupt Vector 3 
.vector_4               0x9d03f280            0x8           8  Interrupt Vector 4 
.vector_5               0x9d03f2a0            0x8           8  Interrupt Vector 5 
.vector_6               0x9d03f2c0            0x8           8  Interrupt Vector 6 
.vector_7               0x9d03f2e0            0x8           8  Interrupt Vector 7 
.vector_8               0x9d03f300            0x8           8  Interrupt Vector 8 
.vector_9               0x9d03f320            0x8           8  Interrupt Vector 9 
.vector_10              0x9d03f340            0x8           8  Interrupt Vector 10 
.vector_11              0x9d03f360            0x8           8  Interrupt Vector 11 
.vector_12              0x9d03f380            0x8           8  Interrupt Vector 12 
.vector_13              0x9d03f3a0            0x8           8  Interrupt Vector 13 
.vector_14              0x9d03f3c0            0x8           8  Interrupt Vector 14 
.vector_15              0x9d03f3e0            0x8           8  Interrupt Vector 15 
.vector_16              0x9d03f400            0x8           8  Interrupt Vector 16 
.vector_17              0x9d03f420            0x8           8  Interrupt Vector 17 
.vector_18              0x9d03f440            0x8           8  Interrupt Vector 18 
.vector_19              0x9d03f460            0x8           8  Interrupt Vector 19 
.vector_20              0x9d03f480            0x8           8  Interrupt Vector 20 
.vector_21              0x9d03f4a0            0x8           8  Interrupt Vector 21 
.vector_22              0x9d03f4c0            0x8           8  Interrupt Vector 22 
.vector_23              0x9d03f4e0            0x8           8  Interrupt Vector 23 
.vector_24              0x9d03f500            0x8           8  Interrupt Vector 24 
.vector_25              0x9d03f520            0x8           8  Interrupt Vector 25 
.vector_26              0x9d03f540            0x8           8  Interrupt Vector 26 
.vector_27              0x9d03f560            0x8           8  Interrupt Vector 27 
.vector_28              0x9d03f580            0x8           8  Interrupt Vector 28 
.vector_29              0x9d03f5a0            0x8           8  Interrupt Vector 29 
.vector_30              0x9d03f5c0            0x8           8  Interrupt Vector 30 
.vector_31              0x9d03f5e0            0x8           8  Interrupt Vector 31 
.vector_32              0x9d03f600            0x8           8  Interrupt Vector 32 
.vector_33              0x9d03f620            0x8           8  Interrupt Vector 33 
.vector_34              0x9d03f640            0x8           8  Interrupt Vector 34 
.vector_35              0x9d03f660            0x8           8  Interrupt Vector 35 
.vector_36              0x9d03f680            0x8           8  Interrupt Vector 36 
.vector_37              0x9d03f6a0            0x8           8  Interrupt Vector 37 
.vector_38              0x9d03f6c0            0x8           8  Interrupt Vector 38 
.vector_39              0x9d03f6e0            0x8           8  Interrupt Vector 39 
.vector_40              0x9d03f700            0x8           8  Interrupt Vector 40 
.vector_41              0x9d03f720            0x8           8  Interrupt Vector 41 
.vector_42              0x9d03f740            0x8           8  Interrupt Vector 42 
.vector_43              0x9d03f760            0x8           8  Interrupt Vector 43 
          Total exception_mem used  :       0x170         368  9.0% of 0x1000

kseg1 Boot-Memory Usage
section                    address  length [bytes]      (dec)  Description
-------                 ----------  -------------------------  -----------
.reset                  0xbfc00000          0x178         376  Reset handler 
.bev_excpt              0xbfc00380           0x10          16  BEV-Exception 
         Total kseg1_boot_mem used  :       0x188         392  33.6% of 0x490
        --------------------------------------------------------------------------
         Total Program Memory used  :     0x262e0      156384  59.4% of 0x40490
        --------------------------------------------------------------------------


kseg1 Data-Memory Usage
section                    address  length [bytes]      (dec)  Description
-------                 ----------  -------------------------  -----------
.persist                0xa0000000            0x8           8   
.sdata                  0xa0000008           0x1c          28  Small init data 
.sbss                   0xa0000024          0x148         328  Small uninit data 
.bss                    0xa000016c            0x4           4  Uninitialized data 
.bss                    0xa0000170           0x8c         140  Uninitialized data 
.bss                    0xa0000200         0x15d8        5592  Uninitialized data 
.bss                    0xa00017d8         0x1b94        7060  Uninitialized data 
.bss                    0xa000336c           0xa8         168  Uninitialized data 
.data                   0xa0003414           0xa4         164  Initialized data 
.bss                    0xa00034b8           0x48          72  Uninitialized data 
.bss                    0xa0003500           0x1c          28  Uninitialized data 
.data                   0xa000351c            0x8           8  Initialized data 
         Total kseg1_data_mem used  :      0x3520       13600  20.8% of 0x10000
        --------------------------------------------------------------------------
            Total Data Memory used  :      0x3520       13600  20.8% of 0x10000
        --------------------------------------------------------------------------


Dynamic Data-Memory Reservation
section                    address  length [bytes]      (dec)  Description
-------                 ----------  -------------------------  -----------
heap                    0xa0003528          0x800        2048  Reserved for heap 
stack                   0xa0003d40         0xc2b0       49840  Reserved for stack 

        --------------------------------------------------------------------------

Discarded input sections

 .reginfo       0x0000000000000000       0x18 build/default/debug/config/config.o
 .reginfo       0x0000000000000000       0x18 build/default/debug/delay/delay.o
 .reginfo       0x0000000000000000       0x18 build/default/debug/fatfs/ff.o
 .reginfo       0x0000000000000000       0x18 build/default/debug/fatfs/ffsystem.o
 .reginfo       0x0000000000000000       0x18 build/default/debug/fatfs/ffunicode.o
 .reginfo       0x0000000000000000       0x18 build/default/debug/fatfs/SPIFlash.o
 .reginfo       0x0000000000000000       0x18 build/default/debug/fatfs/diskio.o
 .reginfo       0x0000000000000000       0x18 build/default/debug/net/Announce.o
 .reginfo       0x0000000000000000       0x18 build/default/debug/net/ARCFOUR.o
 .reginfo       0x0000000000000000       0x18 build/default/debug/net/ARP.o
 .reginfo       0x0000000000000000       0x18 build/default/debug/net/AutoIP.o
 .reginfo       0x0000000000000000       0x18 build/default/debug/net/BerkeleyAPI.o
 .reginfo       0x0000000000000000       0x18 build/default/debug/net/BigInt.o
 .reginfo       0x0000000000000000       0x18 build/default/debug/CustomHTTPApp.o
 .reginfo       0x0000000000000000       0x18 build/default/debug/net/DHCP.o
 .reginfo       0x0000000000000000       0x18 build/default/debug/net/DNS.o
 .reginfo       0x0000000000000000       0x18 build/default/debug/net/ENC28J60.o
 .reginfo       0x0000000000000000       0x18 build/default/debug/net/FTP.o
 .reginfo       0x0000000000000000       0x18 build/default/debug/net/GenericTCPServer.o
 .reginfo       0x0000000000000000       0x18 build/default/debug/net/Hashes.o
 .reginfo       0x0000000000000000       0x18 build/default/debug/net/Helpers.o
 .reginfo       0x0000000000000000       0x18 build/default/debug/net/HTTP2.o
 .reginfo       0x0000000000000000       0x18 build/default/debug/net/ICMP.o
 .reginfo       0x0000000000000000       0x18 build/default/debug/net/IP.o
 .reginfo       0x0000000000000000       0x18 build/default/debug/net/MPFS2.o
 .reginfo       0x0000000000000000       0x18 build/default/debug/MPFSImg2.o
 .reginfo       0x0000000000000000       0x18 build/default/debug/net/NBNS.o
 .reginfo       0x0000000000000000       0x18 build/default/debug/net/Random.o
 .reginfo       0x0000000000000000       0x18 build/default/debug/net/Reboot.o
 .reginfo       0x0000000000000000       0x18 build/default/debug/net/RSA.o
 .reginfo       0x0000000000000000       0x18 build/default/debug/net/SMTP.o
 .reginfo       0x0000000000000000       0x18 build/default/debug/net/SNTP.o
 .reginfo       0x0000000000000000       0x18 build/default/debug/net/SSL.o
 .reginfo       0x0000000000000000       0x18 build/default/debug/net/StackTsk.o
 .reginfo       0x0000000000000000       0x18 build/default/debug/net/TCP.o
 .reginfo       0x0000000000000000       0x18 build/default/debug/net/Telnet.o
 .reginfo       0x0000000000000000       0x18 build/default/debug/net/Tick.o
 .reginfo       0x0000000000000000       0x18 build/default/debug/net/UDP.o
 .reginfo       0x0000000000000000       0x18 build/default/debug/net/ZeroconfHelper.o
 .reginfo       0x0000000000000000       0x18 build/default/debug/net/ZeroconfLinkLocal.o
 .reginfo       0x0000000000000000       0x18 build/default/debug/net/ZeroconfMulticastDNS.o
 .reginfo       0x0000000000000000       0x18 build/default/debug/nvram/nvram.o
 .reginfo       0x0000000000000000       0x18 build/default/debug/time/time.o
 .reginfo       0x0000000000000000       0x18 build/default/debug/uart/uart.o
 .reginfo       0x0000000000000000       0x18 build/default/debug/uart/debug_uart.o
 .reginfo       0x0000000000000000       0x18 build/default/debug/usb/event.o
 .reginfo       0x0000000000000000       0x18 build/default/debug/usb/usb_descriptors.o
 .reginfo       0x0000000000000000       0x18 build/default/debug/usb/usb_device.o
 .reginfo       0x0000000000000000       0x18 build/default/debug/usb/usb_function_cdc.o
 .reginfo       0x0000000000000000       0x18 build/default/debug/main.o
 .reginfo       0x0000000000000000       0x18 build/default/debug/common.o
 .reginfo       0x0000000000000000       0x18 /tmp/cc1HBx2X.o
 .reginfo       0x0000000000000000       0x18 /tmp/cciMKlRo.o
 .reginfo       0x0000000000000000       0x18 /tmp/cccJkBig.o
 .discard       0x0000000000000000       0xb0 /tmp/cccJkBig.o
 .reginfo       0x0000000000000000       0x18 /opt/microchip/xc32/v2.40/bin/bin/../../lib/gcc/pic32mx/4.8.3/../../../../pic32mx/lib/pic32_software_reset.o
 .reginfo       0x0000000000000000       0x18 /opt/microchip/xc32/v2.40/bin/bin/../../lib/gcc/pic32mx/4.8.3/../../../../pic32mx/lib/./proc/32MX270F256B/processor.o
 .reginfo       0x0000000000000000       0x18 /opt/microchip/xc32/v2.40/bin/bin/../../lib/gcc/pic32mx/4.8.3/../../../../pic32mx/lib/libmchp_peripheral.a(read_core_timer_lib.o)
 .reginfo       0x0000000000000000       0x18 /opt/microchip/xc32/v2.40/bin/bin/../../lib/gcc/pic32mx/4.8.3/../../../../pic32mx/lib/libmchp_peripheral_32MX270F256B.a(soft_reset_lib.o)
 .reginfo       0x0000000000000000       0x18 /opt/microchip/xc32/v2.40/bin/bin/../../lib/gcc/pic32mx/4.8.3/../../../../pic32mx/lib/libmchp_peripheral_32MX270F256B.a(int_enable_interrupts_lib.o)
 .reginfo       0x0000000000000000       0x18 /opt/microchip/xc32/v2.40/bin/bin/../../lib/gcc/pic32mx/4.8.3/../../../../pic32mx/lib/libmchp_peripheral_32MX270F256B.a(int_disable_interrupts_lib.o)
 .reginfo       0x0000000000000000       0x18 /opt/microchip/xc32/v2.40/bin/bin/../../lib/gcc/pic32mx/4.8.3/../../../../pic32mx/lib/libmchp_peripheral_32MX270F256B.a(int_restore_interrupts_lib.o)
 .reginfo       0x0000000000000000       0x18 /opt/microchip/xc32/v2.40/bin/bin/../../lib/gcc/pic32mx/4.8.3/../../../../pic32mx/lib/libmchp_peripheral_32MX270F256B.a(int_enable_mv_int_lib.o)
 .reginfo       0x0000000000000000       0x18 /opt/microchip/xc32/v2.40/bin/bin/../../lib/gcc/pic32mx/4.8.3/../../../../pic32mx/lib/libmchp_peripheral_32MX270F256B.a(int_tbl_lib.o)
 .reginfo       0x0000000000000000       0x18 /opt/microchip/xc32/v2.40/bin/bin/../../lib/gcc/pic32mx/4.8.3/../../../../pic32mx/lib/libmchp_peripheral_32MX270F256B.a(rtcc_set_time_date_lib.o)
 .reginfo       0x0000000000000000       0x18 /opt/microchip/xc32/v2.40/bin/bin/../../lib/gcc/pic32mx/4.8.3/../../../../pic32mx/lib/libmchp_peripheral_32MX270F256B.a(nvm_erase_page_lib.o)
 .reginfo       0x0000000000000000       0x18 /opt/microchip/xc32/v2.40/bin/bin/../../lib/gcc/pic32mx/4.8.3/../../../../pic32mx/lib/libmchp_peripheral_32MX270F256B.a(nvm_operation_lib.o)
 .reginfo       0x0000000000000000       0x18 /opt/microchip/xc32/v2.40/bin/bin/../../lib/gcc/pic32mx/4.8.3/../../../../pic32mx/lib/libmchp_peripheral_32MX270F256B.a(nvm_write_word_lib.o)
 .reginfo       0x0000000000000000       0x18 /opt/microchip/xc32/v2.40/bin/bin/../../lib/gcc/pic32mx/4.8.3/../../../../pic32mx/lib/libmchp_peripheral_32MX270F256B.a(_rtcc_set_time_and_date_lib.o)
 .reginfo       0x0000000000000000       0x18 /opt/microchip/xc32/v2.40/bin/bin/../../lib/gcc/pic32mx/4.8.3/../../../../pic32mx/lib/libmchp_peripheral_32MX270F256B.a(_rtcc_wait_clock_off_lib.o)
 .reginfo       0x0000000000000000       0x18 /opt/microchip/xc32/v2.40/bin/bin/../../lib/gcc/pic32mx/4.8.3/libgcc.a(_udivdi3.o)
 .reginfo       0x0000000000000000       0x18 /opt/microchip/xc32/v2.40/bin/bin/../../lib/gcc/pic32mx/4.8.3/libgcc.a(floatunsisf.o)
 .reginfo       0x0000000000000000       0x18 /opt/microchip/xc32/v2.40/bin/bin/../../lib/gcc/pic32mx/4.8.3/../../../../pic32mx/lib/libpic32.a(memcmp.o)
 .reginfo       0x0000000000000000       0x18 /opt/microchip/xc32/v2.40/bin/bin/../../lib/gcc/pic32mx/4.8.3/../../../../pic32mx/lib/libpic32.a(memcpy.o)
 .reginfo       0x0000000000000000       0x18 /opt/microchip/xc32/v2.40/bin/bin/../../lib/gcc/pic32mx/4.8.3/../../../../pic32mx/lib/libpic32.a(memset.o)
 .reginfo       0x0000000000000000       0x18 /opt/microchip/xc32/v2.40/bin/bin/../../lib/gcc/pic32mx/4.8.3/../../../../pic32mx/lib/libpic32.a(strcmp.o)
 .reginfo       0x0000000000000000       0x18 /opt/microchip/xc32/v2.40/bin/bin/../../lib/gcc/pic32mx/4.8.3/../../../../pic32mx/lib/libpic32.a(strlen.o)
 .reginfo       0x0000000000000000       0x18 /opt/microchip/xc32/v2.40/bin/bin/../../lib/gcc/pic32mx/4.8.3/../../../../pic32mx/lib/libpic32.a(default-bootstrap-exception-handler.o)
 .reginfo       0x0000000000000000       0x18 /opt/microchip/xc32/v2.40/bin/bin/../../lib/gcc/pic32mx/4.8.3/../../../../pic32mx/lib/libpic32.a(default-on-reset.o)
 .reginfo       0x0000000000000000       0x18 /opt/microchip/xc32/v2.40/bin/bin/../../lib/gcc/pic32mx/4.8.3/../../../../pic32mx/lib/libpic32.a(default-on-bootstrap.o)
 .reginfo       0x0000000000000000       0x18 /opt/microchip/xc32/v2.40/bin/bin/../../lib/gcc/pic32mx/4.8.3/../../../../pic32mx/lib/libpic32.a(default-nmi-handler.o)
 .reginfo       0x0000000000000000       0x18 /opt/microchip/xc32/v2.40/bin/bin/../../lib/gcc/pic32mx/4.8.3/../../../../pic32mx/lib/libpic32.a(xc32_uart.o)
 .reginfo       0x0000000000000000       0x18 /opt/microchip/xc32/v2.40/bin/bin/../../lib/gcc/pic32mx/4.8.3/../../../../pic32mx/lib/libpic32.a(pic32_data_init.o)
 .reginfo       0x0000000000000000       0x18 /opt/microchip/xc32/v2.40/bin/bin/../../lib/gcc/pic32mx/4.8.3/../../../../pic32mx/lib/libpic32.a(general-exception.o)
 .reginfo       0x0000000000000000       0x18 /opt/microchip/xc32/v2.40/bin/bin/../../lib/gcc/pic32mx/4.8.3/../../../../pic32mx/lib/libpic32.a(vector0.o)
 .reginfo       0x0000000000000000       0x18 /opt/microchip/xc32/v2.40/bin/bin/../../lib/gcc/pic32mx/4.8.3/../../../../pic32mx/lib/libpic32.a(vector1.o)
 .reginfo       0x0000000000000000       0x18 /opt/microchip/xc32/v2.40/bin/bin/../../lib/gcc/pic32mx/4.8.3/../../../../pic32mx/lib/libpic32.a(vector2.o)
 .reginfo       0x0000000000000000       0x18 /opt/microchip/xc32/v2.40/bin/bin/../../lib/gcc/pic32mx/4.8.3/../../../../pic32mx/lib/libpic32.a(vector3.o)
 .reginfo       0x0000000000000000       0x18 /opt/microchip/xc32/v2.40/bin/bin/../../lib/gcc/pic32mx/4.8.3/../../../../pic32mx/lib/libpic32.a(vector5.o)
 .reginfo       0x0000000000000000       0x18 /opt/microchip/xc32/v2.40/bin/bin/../../lib/gcc/pic32mx/4.8.3/../../../../pic32mx/lib/libpic32.a(vector6.o)
 .reginfo       0x0000000000000000       0x18 /opt/microchip/xc32/v2.40/bin/bin/../../lib/gcc/pic32mx/4.8.3/../../../../pic32mx/lib/libpic32.a(vector7.o)
 .reginfo       0x0000000000000000       0x18 /opt/microchip/xc32/v2.40/bin/bin/../../lib/gcc/pic32mx/4.8.3/../../../../pic32mx/lib/libpic32.a(vector8.o)
 .reginfo       0x0000000000000000       0x18 /opt/microchip/xc32/v2.40/bin/bin/../../lib/gcc/pic32mx/4.8.3/../../../../pic32mx/lib/libpic32.a(vector9.o)
 .reginfo       0x0000000000000000       0x18 /opt/microchip/xc32/v2.40/bin/bin/../../lib/gcc/pic32mx/4.8.3/../../../../pic32mx/lib/libpic32.a(vector10.o)
 .reginfo       0x0000000000000000       0x18 /opt/microchip/xc32/v2.40/bin/bin/../../lib/gcc/pic32mx/4.8.3/../../../../pic32mx/lib/libpic32.a(vector11.o)
 .reginfo       0x0000000000000000       0x18 /opt/microchip/xc32/v2.40/bin/bin/../../lib/gcc/pic32mx/4.8.3/../../../../pic32mx/lib/libpic32.a(vector13.o)
 .reginfo       0x0000000000000000       0x18 /opt/microchip/xc32/v2.40/bin/bin/../../lib/gcc/pic32mx/4.8.3/../../../../pic32mx/lib/libpic32.a(vector14.o)
 .reginfo       0x0000000000000000       0x18 /opt/microchip/xc32/v2.40/bin/bin/../../lib/gcc/pic32mx/4.8.3/../../../../pic32mx/lib/libpic32.a(vector15.o)
 .reginfo       0x0000000000000000       0x18 /opt/microchip/xc32/v2.40/bin/bin/../../lib/gcc/pic32mx/4.8.3/../../../../pic32mx/lib/libpic32.a(vector16.o)
 .reginfo       0x0000000000000000       0x18 /opt/microchip/xc32/v2.40/bin/bin/../../lib/gcc/pic32mx/4.8.3/../../../../pic32mx/lib/libpic32.a(vector17.o)
 .reginfo       0x0000000000000000       0x18 /opt/microchip/xc32/v2.40/bin/bin/../../lib/gcc/pic32mx/4.8.3/../../../../pic32mx/lib/libpic32.a(vector18.o)
 .reginfo       0x0000000000000000       0x18 /opt/microchip/xc32/v2.40/bin/bin/../../lib/gcc/pic32mx/4.8.3/../../../../pic32mx/lib/libpic32.a(vector19.o)
 .reginfo       0x0000000000000000       0x18 /opt/microchip/xc32/v2.40/bin/bin/../../lib/gcc/pic32mx/4.8.3/../../../../pic32mx/lib/libpic32.a(vector20.o)
 .reginfo       0x0000000000000000       0x18 /opt/microchip/xc32/v2.40/bin/bin/../../lib/gcc/pic32mx/4.8.3/../../../../pic32mx/lib/libpic32.a(vector21.o)
 .reginfo       0x0000000000000000       0x18 /opt/microchip/xc32/v2.40/bin/bin/../../lib/gcc/pic32mx/4.8.3/../../../../pic32mx/lib/libpic32.a(vector22.o)
 .reginfo       0x0000000000000000       0x18 /opt/microchip/xc32/v2.40/bin/bin/../../lib/gcc/pic32mx/4.8.3/../../../../pic32mx/lib/libpic32.a(vector23.o)
 .reginfo       0x0000000000000000       0x18 /opt/microchip/xc32/v2.40/bin/bin/../../lib/gcc/pic32mx/4.8.3/../../../../pic32mx/lib/libpic32.a(vector24.o)
 .reginfo       0x0000000000000000       0x18 /opt/microchip/xc32/v2.40/bin/bin/../../lib/gcc/pic32mx/4.8.3/../../../../pic32mx/lib/libpic32.a(vector25.o)
 .reginfo       0x0000000000000000       0x18 /opt/microchip/xc32/v2.40/bin/bin/../../lib/gcc/pic32mx/4.8.3/../../../../pic32mx/lib/libpic32.a(vector26.o)
 .reginfo       0x0000000000000000       0x18 /opt/microchip/xc32/v2.40/bin/bin/../../lib/gcc/pic32mx/4.8.3/../../../../pic32mx/lib/libpic32.a(vector27.o)
 .reginfo       0x0000000000000000       0x18 /opt/microchip/xc32/v2.40/bin/bin/../../lib/gcc/pic32mx/4.8.3/../../../../pic32mx/lib/libpic32.a(vector28.o)
 .reginfo       0x0000000000000000       0x18 /opt/microchip/xc32/v2.40/bin/bin/../../lib/gcc/pic32mx/4.8.3/../../../../pic32mx/lib/libpic32.a(vector29.o)
 .reginfo       0x0000000000000000       0x18 /opt/microchip/xc32/v2.40/bin/bin/../../lib/gcc/pic32mx/4.8.3/../../../../pic32mx/lib/libpic32.a(vector31.o)
 .reginfo       0x0000000000000000       0x18 /opt/microchip/xc32/v2.40/bin/bin/../../lib/gcc/pic32mx/4.8.3/../../../../pic32mx/lib/libpic32.a(vector33.o)
 .reginfo       0x0000000000000000       0x18 /opt/microchip/xc32/v2.40/bin/bin/../../lib/gcc/pic32mx/4.8.3/../../../../pic32mx/lib/libpic32.a(vector34.o)
 .reginfo       0x0000000000000000       0x18 /opt/microchip/xc32/v2.40/bin/bin/../../lib/gcc/pic32mx/4.8.3/../../../../pic32mx/lib/libpic32.a(vector35.o)
 .reginfo       0x0000000000000000       0x18 /opt/microchip/xc32/v2.40/bin/bin/../../lib/gcc/pic32mx/4.8.3/../../../../pic32mx/lib/libpic32.a(vector36.o)
 .reginfo       0x0000000000000000       0x18 /opt/microchip/xc32/v2.40/bin/bin/../../lib/gcc/pic32mx/4.8.3/../../../../pic32mx/lib/libpic32.a(vector38.o)
 .reginfo       0x0000000000000000       0x18 /opt/microchip/xc32/v2.40/bin/bin/../../lib/gcc/pic32mx/4.8.3/../../../../pic32mx/lib/libpic32.a(vector39.o)
 .reginfo       0x0000000000000000       0x18 /opt/microchip/xc32/v2.40/bin/bin/../../lib/gcc/pic32mx/4.8.3/../../../../pic32mx/lib/libpic32.a(vector40.o)
 .reginfo       0x0000000000000000       0x18 /opt/microchip/xc32/v2.40/bin/bin/../../lib/gcc/pic32mx/4.8.3/../../../../pic32mx/lib/libpic32.a(vector41.o)
 .reginfo       0x0000000000000000       0x18 /opt/microchip/xc32/v2.40/bin/bin/../../lib/gcc/pic32mx/4.8.3/../../../../pic32mx/lib/libpic32.a(vector42.o)
 .reginfo       0x0000000000000000       0x18 /opt/microchip/xc32/v2.40/bin/bin/../../lib/gcc/pic32mx/4.8.3/../../../../pic32mx/lib/libpic32.a(vector43.o)
 .reginfo       0x0000000000000000       0x18 /opt/microchip/xc32/v2.40/bin/bin/../../lib/gcc/pic32mx/4.8.3/../../../../pic32mx/lib/libpic32.a(defaultinterrupt.o)
 .reginfo       0x0000000000000000       0x18 /opt/microchip/xc32/v2.40/bin/bin/../../lib/gcc/pic32mx/4.8.3/../../../../pic32mx/lib/libc.a(atoi.o)
 .reginfo       0x0000000000000000       0x18 /opt/microchip/xc32/v2.40/bin/bin/../../lib/gcc/pic32mx/4.8.3/../../../../pic32mx/lib/libc.a(atol.o)
 .reginfo       0x0000000000000000       0x18 /opt/microchip/xc32/v2.40/bin/bin/../../lib/gcc/pic32mx/4.8.3/../../../../pic32mx/lib/libc.a(ctime.o)
 .reginfo       0x0000000000000000       0x18 /opt/microchip/xc32/v2.40/bin/bin/../../lib/gcc/pic32mx/4.8.3/../../../../pic32mx/lib/libc.a(ctype.o)
 .reginfo       0x0000000000000000       0x18 /opt/microchip/xc32/v2.40/bin/bin/../../lib/gcc/pic32mx/4.8.3/../../../../pic32mx/lib/libc.a(mktime.o)
 .reginfo       0x0000000000000000       0x18 /opt/microchip/xc32/v2.40/bin/bin/../../lib/gcc/pic32mx/4.8.3/../../../../pic32mx/lib/libc.a(puts.o)
 .reginfo       0x0000000000000000       0x18 /opt/microchip/xc32/v2.40/bin/bin/../../lib/gcc/pic32mx/4.8.3/../../../../pic32mx/lib/libc.a(rand.o)
 .reginfo       0x0000000000000000       0x18 /opt/microchip/xc32/v2.40/bin/bin/../../lib/gcc/pic32mx/4.8.3/../../../../pic32mx/lib/libc.a(strncpy.o)
 .reginfo       0x0000000000000000       0x18 /opt/microchip/xc32/v2.40/bin/bin/../../lib/gcc/pic32mx/4.8.3/../../../../pic32mx/lib/libc.a(printf_cdfFnopuxX.eo)
 .reginfo       0x0000000000000000       0x18 /opt/microchip/xc32/v2.40/bin/bin/../../lib/gcc/pic32mx/4.8.3/../../../../pic32mx/lib/libc.a(snprintf_cdnopuxX.eo)
 .reginfo       0x0000000000000000       0x18 /opt/microchip/xc32/v2.40/bin/bin/../../lib/gcc/pic32mx/4.8.3/../../../../pic32mx/lib/libc.a(sprintf_cdnopsuxX.eo)
 .reginfo       0x0000000000000000       0x18 /opt/microchip/xc32/v2.40/bin/bin/../../lib/gcc/pic32mx/4.8.3/../../../../pic32mx/lib/libc.a(sscanf_cdnopuxX.eo)
 .reginfo       0x0000000000000000       0x18 /opt/microchip/xc32/v2.40/bin/bin/../../lib/gcc/pic32mx/4.8.3/../../../../pic32mx/lib/libc.a(vsnprintf_cdnopuxX.eo)
 .reginfo       0x0000000000000000       0x18 /opt/microchip/xc32/v2.40/bin/bin/../../lib/gcc/pic32mx/4.8.3/../../../../pic32mx/lib/libc.a(_iob.o)
 .reginfo       0x0000000000000000       0x18 /opt/microchip/xc32/v2.40/bin/bin/../../lib/gcc/pic32mx/4.8.3/../../../../pic32mx/lib/libc.a(_fputc_simple.o)
 .reginfo       0x0000000000000000       0x18 /opt/microchip/xc32/v2.40/bin/bin/../../lib/gcc/pic32mx/4.8.3/../../../../pic32mx/lib/libc.a(doscan_cdnopuxX.eo)
 .reginfo       0x0000000000000000       0x18 /opt/microchip/xc32/v2.40/bin/bin/../../lib/gcc/pic32mx/4.8.3/../../../../pic32mx/lib/libc.a(_flsbuf_simple.o)
 .reginfo       0x0000000000000000       0x18 /opt/microchip/xc32/v2.40/bin/bin/../../lib/gcc/pic32mx/4.8.3/../../../../pic32mx/lib/libc.a(fgetc.o)
 .reginfo       0x0000000000000000       0x18 /opt/microchip/xc32/v2.40/bin/bin/../../lib/gcc/pic32mx/4.8.3/../../../../pic32mx/lib/libc.a(ctypef.o)
 .reginfo       0x0000000000000000       0x18 /opt/microchip/xc32/v2.40/bin/bin/../../lib/gcc/pic32mx/4.8.3/../../../../pic32mx/lib/libc.a(ldpowers.o)
 .reginfo       0x0000000000000000       0x18 /opt/microchip/xc32/v2.40/bin/bin/../../lib/gcc/pic32mx/4.8.3/../../../../pic32mx/lib/libc.a(ungetc.o)
 .reginfo       0x0000000000000000       0x18 /opt/microchip/xc32/v2.40/bin/bin/../../lib/gcc/pic32mx/4.8.3/../../../../pic32mx/lib/libc.a(filbuf.o)
 .reginfo       0x0000000000000000       0x18 /opt/microchip/xc32/v2.40/bin/bin/../../lib/gcc/pic32mx/4.8.3/../../../../pic32mx/lib/libc.a(fflush.o)
 .reginfo       0x0000000000000000       0x18 /opt/microchip/xc32/v2.40/bin/bin/../../lib/gcc/pic32mx/4.8.3/../../../../pic32mx/lib/libc.a(doprnt_cdfFnopsuxX.eo)
 .reginfo       0x0000000000000000       0x18 /opt/microchip/xc32/v2.40/bin/bin/../../lib/gcc/pic32mx/4.8.3/../../../../pic32mx/lib/libm.a(dpfrexp.o)
 .reginfo       0x0000000000000000       0x18 /opt/microchip/xc32/v2.40/bin/bin/../../lib/gcc/pic32mx/4.8.3/../../../../pic32mx/lib/libm.a(dp32div.o)
 .reginfo       0x0000000000000000       0x18 /opt/microchip/xc32/v2.40/bin/bin/../../lib/gcc/pic32mx/4.8.3/../../../../pic32mx/lib/libm.a(dp32mul.o)
 .reginfo       0x0000000000000000       0x18 /opt/microchip/xc32/v2.40/bin/bin/../../lib/gcc/pic32mx/4.8.3/../../../../pic32mx/lib/libm.a(dp32subadd.o)
 .reginfo       0x0000000000000000       0x18 /opt/microchip/xc32/v2.40/bin/bin/../../lib/gcc/pic32mx/4.8.3/../../../../pic32mx/lib/libm.a(dpcmp.o)
 .reginfo       0x0000000000000000       0x18 /opt/microchip/xc32/v2.40/bin/bin/../../lib/gcc/pic32mx/4.8.3/../../../../pic32mx/lib/libm.a(fp32div.o)
 .reginfo       0x0000000000000000       0x18 /opt/microchip/xc32/v2.40/bin/bin/../../lib/gcc/pic32mx/4.8.3/../../../../pic32mx/lib/libm.a(fp32subadd.o)
 .reginfo       0x0000000000000000       0x18 /opt/microchip/xc32/v2.40/bin/bin/../../lib/gcc/pic32mx/4.8.3/../../../../pic32mx/lib/libm.a(fptodp.o)
 .reginfo       0x0000000000000000       0x18 /opt/microchip/xc32/v2.40/bin/bin/../../lib/gcc/pic32mx/4.8.3/../../../../pic32mx/lib/libm.a(sitofp.o)
 .reginfo       0x0000000000000000       0x18 /opt/microchip/xc32/v2.40/bin/bin/../../lib/gcc/pic32mx/4.8.3/../../../../pic32mx/lib/libe.a(_fixunsdfdi.o)
 .reginfo       0x0000000000000000       0x18 /opt/microchip/xc32/v2.40/bin/bin/../../lib/gcc/pic32mx/4.8.3/../../../../pic32mx/lib/libe.a(_orderdf2.o)
 .reginfo       0x0000000000000000       0x18 /opt/microchip/xc32/v2.40/bin/bin/../../lib/gcc/pic32mx/4.8.3/../../../../pic32mx/lib/libe.a(_fixdfdi.o)
 .reginfo       0x0000000000000000       0x18 /opt/microchip/xc32/v2.40/bin/bin/../../lib/gcc/pic32mx/4.8.3/libgcc.a(_floatundidf.o)
 .reginfo       0x0000000000000000       0x18 /opt/microchip/xc32/v2.40/bin/bin/../../lib/gcc/pic32mx/4.8.3/libgcc.a(_umoddi3.o)
 .reginfo       0x0000000000000000       0x18 /opt/microchip/xc32/v2.40/bin/bin/../../lib/gcc/pic32mx/4.8.3/libgcc.a(floatunsidf.o)
 .reginfo       0x0000000000000000       0x18 /opt/microchip/xc32/v2.40/bin/bin/../../lib/gcc/pic32mx/4.8.3/../../../../pic32mx/lib/libpic32.a(read.o)
 .reginfo       0x0000000000000000       0x18 /opt/microchip/xc32/v2.40/bin/bin/../../lib/gcc/pic32mx/4.8.3/../../../../pic32mx/lib/libpic32.a(write.o)
 .reginfo       0x0000000000000000       0x18 /opt/microchip/xc32/v2.40/bin/bin/../../lib/gcc/pic32mx/4.8.3/../../../../pic32mx/lib/libpic32.a(_mon_putc.o)
 .reginfo       0x0000000000000000       0x18 /opt/microchip/xc32/v2.40/bin/bin/../../lib/gcc/pic32mx/4.8.3/../../../../pic32mx/lib/libm.a(litodp.o)

Memory Configuration

Name             Origin             Length             Attributes
kseg0_program_mem 0x000000009d000000 0x000000000003f000 xr
exception_mem    0x000000009d03f000 0x0000000000001000
debug_exec_mem   0x000000009fc00490 0x0000000000000760
kseg0_boot_mem   0x000000009fc00490 0x0000000000000000
kseg1_boot_mem   0x00000000bfc00000 0x0000000000000490
config3          0x00000000bfc00bf0 0x0000000000000004
config2          0x00000000bfc00bf4 0x0000000000000004
config1          0x00000000bfc00bf8 0x0000000000000004
config0          0x00000000bfc00bfc 0x0000000000000004
kseg1_data_mem   0x00000000a0000000 0x0000000000010000 w !x
sfrs             0x00000000bf800000 0x0000000000100000
configsfrs       0x00000000bfc00bf0 0x0000000000000010
*default*        0x0000000000000000 0xffffffffffffffff

Linker script and memory map

LOAD /opt/microchip/xc32/v2.40/bin/bin/../../lib/gcc/pic32mx/4.8.3/../../../../pic32mx/lib/debug-exception-return.o
LOAD build/default/debug/config/config.o
LOAD build/default/debug/delay/delay.o
LOAD build/default/debug/fatfs/ff.o
LOAD build/default/debug/fatfs/ffsystem.o
LOAD build/default/debug/fatfs/ffunicode.o
LOAD build/default/debug/fatfs/SPIFlash.o
LOAD build/default/debug/fatfs/diskio.o
LOAD build/default/debug/net/Announce.o
LOAD build/default/debug/net/ARCFOUR.o
LOAD build/default/debug/net/ARP.o
LOAD build/default/debug/net/AutoIP.o
LOAD build/default/debug/net/BerkeleyAPI.o
LOAD build/default/debug/net/BigInt.o
LOAD build/default/debug/CustomHTTPApp.o
LOAD build/default/debug/net/DHCP.o
LOAD build/default/debug/net/DNS.o
LOAD build/default/debug/net/ENC28J60.o
LOAD build/default/debug/net/FTP.o
LOAD build/default/debug/net/GenericTCPServer.o
LOAD build/default/debug/net/Hashes.o
LOAD build/default/debug/net/Helpers.o
LOAD build/default/debug/net/HTTP2.o
LOAD build/default/debug/net/ICMP.o
LOAD build/default/debug/net/IP.o
LOAD build/default/debug/net/MPFS2.o
LOAD build/default/debug/MPFSImg2.o
LOAD build/default/debug/net/NBNS.o
LOAD build/default/debug/net/Random.o
LOAD build/default/debug/net/Reboot.o
LOAD build/default/debug/net/RSA.o
LOAD build/default/debug/net/SMTP.o
LOAD build/default/debug/net/SNTP.o
LOAD build/default/debug/net/SSL.o
LOAD build/default/debug/net/StackTsk.o
LOAD build/default/debug/net/TCP.o
LOAD build/default/debug/net/Telnet.o
LOAD build/default/debug/net/Tick.o
LOAD build/default/debug/net/UDP.o
LOAD build/default/debug/net/ZeroconfHelper.o
LOAD build/default/debug/net/ZeroconfLinkLocal.o
LOAD build/default/debug/net/ZeroconfMulticastDNS.o
LOAD build/default/debug/nvram/nvram.o
LOAD build/default/debug/time/time.o
LOAD build/default/debug/uart/uart.o
LOAD build/default/debug/uart/debug_uart.o
LOAD build/default/debug/usb/event.o
LOAD build/default/debug/usb/usb_descriptors.o
LOAD build/default/debug/usb/usb_device.o
LOAD build/default/debug/usb/usb_function_cdc.o
LOAD build/default/debug/main.o
LOAD build/default/debug/common.o
                0x0000000000000001                __MPLAB_BUILD = 0x1
                0x0000000000000001                __MPLAB_DEBUG = 0x1
                0x0000000000000001                __DEBUG = 0x1
                0x0000000000000800                _min_heap_size = 0x800
LOAD /tmp/cc1HBx2X.o
LOAD /tmp/cciMKlRo.o
LOAD /tmp/cccJkBig.o
LOAD /opt/microchip/xc32/v2.40/bin/bin/../../lib/gcc/pic32mx/4.8.3/../../../../pic32mx/lib/pic32_software_reset.o
                0x0000000000000400                PROVIDE (_min_stack_size, 0x400)
START GROUP
LOAD /opt/microchip/xc32/v2.40/bin/bin/../../lib/gcc/pic32mx/4.8.3/../../../../pic32mx/lib/./proc/32MX270F256B/processor.o
END GROUP
START GROUP
LOAD /opt/microchip/xc32/v2.40/bin/bin/../../lib/gcc/pic32mx/4.8.3/../../../../pic32mx/lib/libmchp_peripheral.a
END GROUP
START GROUP
LOAD /opt/microchip/xc32/v2.40/bin/bin/../../lib/gcc/pic32mx/4.8.3/../../../../pic32mx/lib/libmchp_peripheral_32MX270F256B.a
END GROUP
                0x0000000000000001                PROVIDE (_vector_spacing, 0x1)
                0x000000009d03f000                PROVIDE (_ebase_address, 0x9d03f000)
                0x00000000bfc00000                _RESET_ADDR = 0xbfc00000
                0x00000000bfc00380                _BEV_EXCPT_ADDR = 0xbfc00380
                0x00000000bfc00480                _DBG_EXCPT_ADDR = 0xbfc00480
                0x000000009fc00490                _DBG_CODE_ADDR = 0x9fc00490
                0x0000000000000760                _DBG_CODE_SIZE = 0x760
                0x000000009d03f180                _GEN_EXCPT_ADDR = (_ebase_address + 0x180)

.config_BFC00BF0
                0x00000000bfc00bf0        0x4
 *(.config_BFC00BF0)
 .config_BFC00BF0
                0x00000000bfc00bf0        0x4 build/default/debug/main.o

.config_BFC00BF4
                0x00000000bfc00bf4        0x4
 *(.config_BFC00BF4)
 .config_BFC00BF4
                0x00000000bfc00bf4        0x4 build/default/debug/main.o

.config_BFC00BF8
                0x00000000bfc00bf8        0x4
 *(.config_BFC00BF8)
 .config_BFC00BF8
                0x00000000bfc00bf8        0x4 build/default/debug/main.o

.config_BFC00BFC
                0x00000000bfc00bfc        0x4
 *(.config_BFC00BFC)
 .config_BFC00BFC
                0x00000000bfc00bfc        0x4 build/default/debug/main.o
                0x00000000bfc02000                PROVIDE (_DBG_CODE_ADDR, 0xbfc02000)
                0x0000000000000ff0                PROVIDE (_DBG_CODE_SIZE, 0xff0)

.reset          0x00000000bfc00000      0x178
 *(.reset)
 .reset         0x00000000bfc00000        0x8 /tmp/cc1HBx2X.o
                0x00000000bfc00000                _reset
 *(.reset.startup)
 .reset.startup
                0x00000000bfc00008      0x170 /tmp/cc1HBx2X.o
                0x00000000bfc00008                _startup

.bev_excpt      0x00000000bfc00380       0x10
 *(.bev_handler)
 .bev_handler   0x00000000bfc00380       0x10 /tmp/cc1HBx2X.o

.dbg_excpt      0x00000000bfc00480        0x0
                0x00000000bfc00480                . = (. + DEFINED (_DEBUGGER)?0x8:0x0)

.dbg_code       0x000000009fc00490        0x0
                0x000000009fc00490                . = (. + DEFINED (_DEBUGGER)?_DBG_CODE_SIZE:0x0)

.app_excpt      0x000000009d03f180       0x10
 *(.gen_handler)
 .gen_handler   0x000000009d03f180       0x10 /tmp/cc1HBx2X.o

.vector_0       0x000000009d03f200        0x8
 *(.vector_0)
 .vector_0      0x000000009d03f200        0x8 /opt/microchip/xc32/v2.40/bin/bin/../../lib/gcc/pic32mx/4.8.3/../../../../pic32mx/lib/libpic32.a(vector0.o)
                0x000000009d03f200                __vector_dispatch_0
                0x0000000000000001                ASSERT (((_vector_spacing == 0x0) || (SIZEOF (.vector_0) <= (_vector_spacing << 0x5))), function at exception vector 0 too large)

.vector_1       0x000000009d03f220        0x8
 *(.vector_1)
 .vector_1      0x000000009d03f220        0x8 /opt/microchip/xc32/v2.40/bin/bin/../../lib/gcc/pic32mx/4.8.3/../../../../pic32mx/lib/libpic32.a(vector1.o)
                0x000000009d03f220                __vector_dispatch_1
                0x0000000000000001                ASSERT (((_vector_spacing == 0x0) || (SIZEOF (.vector_1) <= (_vector_spacing << 0x5))), function at exception vector 1 too large)

.vector_2       0x000000009d03f240        0x8
 *(.vector_2)
 .vector_2      0x000000009d03f240        0x8 /opt/microchip/xc32/v2.40/bin/bin/../../lib/gcc/pic32mx/4.8.3/../../../../pic32mx/lib/libpic32.a(vector2.o)
                0x000000009d03f240                __vector_dispatch_2
                0x0000000000000001                ASSERT (((_vector_spacing == 0x0) || (SIZEOF (.vector_2) <= (_vector_spacing << 0x5))), function at exception vector 2 too large)

.vector_3       0x000000009d03f260        0x8
 *(.vector_3)
 .vector_3      0x000000009d03f260        0x8 /opt/microchip/xc32/v2.40/bin/bin/../../lib/gcc/pic32mx/4.8.3/../../../../pic32mx/lib/libpic32.a(vector3.o)
                0x000000009d03f260                __vector_dispatch_3
                0x0000000000000001                ASSERT (((_vector_spacing == 0x0) || (SIZEOF (.vector_3) <= (_vector_spacing << 0x5))), function at exception vector 3 too large)

.vector_4       0x000000009d03f280        0x8
 *(.vector_4)
 .vector_4      0x000000009d03f280        0x8 build/default/debug/net/Tick.o
                0x000000009d03f280                __vector_dispatch_4
                0x0000000000000001                ASSERT (((_vector_spacing == 0x0) || (SIZEOF (.vector_4) <= (_vector_spacing << 0x5))), function at exception vector 4 too large)

.vector_5       0x000000009d03f2a0        0x8
 *(.vector_5)
 .vector_5      0x000000009d03f2a0        0x8 /opt/microchip/xc32/v2.40/bin/bin/../../lib/gcc/pic32mx/4.8.3/../../../../pic32mx/lib/libpic32.a(vector5.o)
                0x000000009d03f2a0                __vector_dispatch_5
                0x0000000000000001                ASSERT (((_vector_spacing == 0x0) || (SIZEOF (.vector_5) <= (_vector_spacing << 0x5))), function at exception vector 5 too large)

.vector_6       0x000000009d03f2c0        0x8
 *(.vector_6)
 .vector_6      0x000000009d03f2c0        0x8 /opt/microchip/xc32/v2.40/bin/bin/../../lib/gcc/pic32mx/4.8.3/../../../../pic32mx/lib/libpic32.a(vector6.o)
                0x000000009d03f2c0                __vector_dispatch_6
                0x0000000000000001                ASSERT (((_vector_spacing == 0x0) || (SIZEOF (.vector_6) <= (_vector_spacing << 0x5))), function at exception vector 6 too large)

.vector_7       0x000000009d03f2e0        0x8
 *(.vector_7)
 .vector_7      0x000000009d03f2e0        0x8 /opt/microchip/xc32/v2.40/bin/bin/../../lib/gcc/pic32mx/4.8.3/../../../../pic32mx/lib/libpic32.a(vector7.o)
                0x000000009d03f2e0                __vector_dispatch_7
                0x0000000000000001                ASSERT (((_vector_spacing == 0x0) || (SIZEOF (.vector_7) <= (_vector_spacing << 0x5))), function at exception vector 7 too large)

.vector_8       0x000000009d03f300        0x8
 *(.vector_8)
 .vector_8      0x000000009d03f300        0x8 /opt/microchip/xc32/v2.40/bin/bin/../../lib/gcc/pic32mx/4.8.3/../../../../pic32mx/lib/libpic32.a(vector8.o)
                0x000000009d03f300                __vector_dispatch_8
                0x0000000000000001                ASSERT (((_vector_spacing == 0x0) || (SIZEOF (.vector_8) <= (_vector_spacing << 0x5))), function at exception vector 8 too large)

.vector_9       0x000000009d03f320        0x8
 *(.vector_9)
 .vector_9      0x000000009d03f320        0x8 /opt/microchip/xc32/v2.40/bin/bin/../../lib/gcc/pic32mx/4.8.3/../../../../pic32mx/lib/libpic32.a(vector9.o)
                0x000000009d03f320                __vector_dispatch_9
                0x0000000000000001                ASSERT (((_vector_spacing == 0x0) || (SIZEOF (.vector_9) <= (_vector_spacing << 0x5))), function at exception vector 9 too large)

.vector_10      0x000000009d03f340        0x8
 *(.vector_10)
 .vector_10     0x000000009d03f340        0x8 /opt/microchip/xc32/v2.40/bin/bin/../../lib/gcc/pic32mx/4.8.3/../../../../pic32mx/lib/libpic32.a(vector10.o)
                0x000000009d03f340                __vector_dispatch_10
                0x0000000000000001                ASSERT (((_vector_spacing == 0x0) || (SIZEOF (.vector_10) <= (_vector_spacing << 0x5))), function at exception vector 10 too large)

.vector_11      0x000000009d03f360        0x8
 *(.vector_11)
 .vector_11     0x000000009d03f360        0x8 /opt/microchip/xc32/v2.40/bin/bin/../../lib/gcc/pic32mx/4.8.3/../../../../pic32mx/lib/libpic32.a(vector11.o)
                0x000000009d03f360                __vector_dispatch_11
                0x0000000000000001                ASSERT (((_vector_spacing == 0x0) || (SIZEOF (.vector_11) <= (_vector_spacing << 0x5))), function at exception vector 11 too large)

.vector_12      0x000000009d03f380        0x8
 *(.vector_12)
 .vector_12     0x000000009d03f380        0x8 build/default/debug/time/time.o
                0x000000009d03f380                __vector_dispatch_12
                0x0000000000000001                ASSERT (((_vector_spacing == 0x0) || (SIZEOF (.vector_12) <= (_vector_spacing << 0x5))), function at exception vector 12 too large)

.vector_13      0x000000009d03f3a0        0x8
 *(.vector_13)
 .vector_13     0x000000009d03f3a0        0x8 /opt/microchip/xc32/v2.40/bin/bin/../../lib/gcc/pic32mx/4.8.3/../../../../pic32mx/lib/libpic32.a(vector13.o)
                0x000000009d03f3a0                __vector_dispatch_13
                0x0000000000000001                ASSERT (((_vector_spacing == 0x0) || (SIZEOF (.vector_13) <= (_vector_spacing << 0x5))), function at exception vector 13 too large)

.vector_14      0x000000009d03f3c0        0x8
 *(.vector_14)
 .vector_14     0x000000009d03f3c0        0x8 /opt/microchip/xc32/v2.40/bin/bin/../../lib/gcc/pic32mx/4.8.3/../../../../pic32mx/lib/libpic32.a(vector14.o)
                0x000000009d03f3c0                __vector_dispatch_14
                0x0000000000000001                ASSERT (((_vector_spacing == 0x0) || (SIZEOF (.vector_14) <= (_vector_spacing << 0x5))), function at exception vector 14 too large)

.vector_15      0x000000009d03f3e0        0x8
 *(.vector_15)
 .vector_15     0x000000009d03f3e0        0x8 /opt/microchip/xc32/v2.40/bin/bin/../../lib/gcc/pic32mx/4.8.3/../../../../pic32mx/lib/libpic32.a(vector15.o)
                0x000000009d03f3e0                __vector_dispatch_15
                0x0000000000000001                ASSERT (((_vector_spacing == 0x0) || (SIZEOF (.vector_15) <= (_vector_spacing << 0x5))), function at exception vector 15 too large)

.vector_16      0x000000009d03f400        0x8
 *(.vector_16)
 .vector_16     0x000000009d03f400        0x8 /opt/microchip/xc32/v2.40/bin/bin/../../lib/gcc/pic32mx/4.8.3/../../../../pic32mx/lib/libpic32.a(vector16.o)
                0x000000009d03f400                __vector_dispatch_16
                0x0000000000000001                ASSERT (((_vector_spacing == 0x0) || (SIZEOF (.vector_16) <= (_vector_spacing << 0x5))), function at exception vector 16 too large)

.vector_17      0x000000009d03f420        0x8
 *(.vector_17)
 .vector_17     0x000000009d03f420        0x8 /opt/microchip/xc32/v2.40/bin/bin/../../lib/gcc/pic32mx/4.8.3/../../../../pic32mx/lib/libpic32.a(vector17.o)
                0x000000009d03f420                __vector_dispatch_17
                0x0000000000000001                ASSERT (((_vector_spacing == 0x0) || (SIZEOF (.vector_17) <= (_vector_spacing << 0x5))), function at exception vector 17 too large)

.vector_18      0x000000009d03f440        0x8
 *(.vector_18)
 .vector_18     0x000000009d03f440        0x8 /opt/microchip/xc32/v2.40/bin/bin/../../lib/gcc/pic32mx/4.8.3/../../../../pic32mx/lib/libpic32.a(vector18.o)
                0x000000009d03f440                __vector_dispatch_18
                0x0000000000000001                ASSERT (((_vector_spacing == 0x0) || (SIZEOF (.vector_18) <= (_vector_spacing << 0x5))), function at exception vector 18 too large)

.vector_19      0x000000009d03f460        0x8
 *(.vector_19)
 .vector_19     0x000000009d03f460        0x8 /opt/microchip/xc32/v2.40/bin/bin/../../lib/gcc/pic32mx/4.8.3/../../../../pic32mx/lib/libpic32.a(vector19.o)
                0x000000009d03f460                __vector_dispatch_19
                0x0000000000000001                ASSERT (((_vector_spacing == 0x0) || (SIZEOF (.vector_19) <= (_vector_spacing << 0x5))), function at exception vector 19 too large)

.vector_20      0x000000009d03f480        0x8
 *(.vector_20)
 .vector_20     0x000000009d03f480        0x8 /opt/microchip/xc32/v2.40/bin/bin/../../lib/gcc/pic32mx/4.8.3/../../../../pic32mx/lib/libpic32.a(vector20.o)
                0x000000009d03f480                __vector_dispatch_20
                0x0000000000000001                ASSERT (((_vector_spacing == 0x0) || (SIZEOF (.vector_20) <= (_vector_spacing << 0x5))), function at exception vector 20 too large)

.vector_21      0x000000009d03f4a0        0x8
 *(.vector_21)
 .vector_21     0x000000009d03f4a0        0x8 /opt/microchip/xc32/v2.40/bin/bin/../../lib/gcc/pic32mx/4.8.3/../../../../pic32mx/lib/libpic32.a(vector21.o)
                0x000000009d03f4a0                __vector_dispatch_21
                0x0000000000000001                ASSERT (((_vector_spacing == 0x0) || (SIZEOF (.vector_21) <= (_vector_spacing << 0x5))), function at exception vector 21 too large)

.vector_22      0x000000009d03f4c0        0x8
 *(.vector_22)
 .vector_22     0x000000009d03f4c0        0x8 /opt/microchip/xc32/v2.40/bin/bin/../../lib/gcc/pic32mx/4.8.3/../../../../pic32mx/lib/libpic32.a(vector22.o)
                0x000000009d03f4c0                __vector_dispatch_22
                0x0000000000000001                ASSERT (((_vector_spacing == 0x0) || (SIZEOF (.vector_22) <= (_vector_spacing << 0x5))), function at exception vector 22 too large)

.vector_23      0x000000009d03f4e0        0x8
 *(.vector_23)
 .vector_23     0x000000009d03f4e0        0x8 /opt/microchip/xc32/v2.40/bin/bin/../../lib/gcc/pic32mx/4.8.3/../../../../pic32mx/lib/libpic32.a(vector23.o)
                0x000000009d03f4e0                __vector_dispatch_23
                0x0000000000000001                ASSERT (((_vector_spacing == 0x0) || (SIZEOF (.vector_23) <= (_vector_spacing << 0x5))), function at exception vector 23 too large)

.vector_24      0x000000009d03f500        0x8
 *(.vector_24)
 .vector_24     0x000000009d03f500        0x8 /opt/microchip/xc32/v2.40/bin/bin/../../lib/gcc/pic32mx/4.8.3/../../../../pic32mx/lib/libpic32.a(vector24.o)
                0x000000009d03f500                __vector_dispatch_24
                0x0000000000000001                ASSERT (((_vector_spacing == 0x0) || (SIZEOF (.vector_24) <= (_vector_spacing << 0x5))), function at exception vector 24 too large)

.vector_25      0x000000009d03f520        0x8
 *(.vector_25)
 .vector_25     0x000000009d03f520        0x8 /opt/microchip/xc32/v2.40/bin/bin/../../lib/gcc/pic32mx/4.8.3/../../../../pic32mx/lib/libpic32.a(vector25.o)
                0x000000009d03f520                __vector_dispatch_25
                0x0000000000000001                ASSERT (((_vector_spacing == 0x0) || (SIZEOF (.vector_25) <= (_vector_spacing << 0x5))), function at exception vector 25 too large)

.vector_26      0x000000009d03f540        0x8
 *(.vector_26)
 .vector_26     0x000000009d03f540        0x8 /opt/microchip/xc32/v2.40/bin/bin/../../lib/gcc/pic32mx/4.8.3/../../../../pic32mx/lib/libpic32.a(vector26.o)
                0x000000009d03f540                __vector_dispatch_26
                0x0000000000000001                ASSERT (((_vector_spacing == 0x0) || (SIZEOF (.vector_26) <= (_vector_spacing << 0x5))), function at exception vector 26 too large)

.vector_27      0x000000009d03f560        0x8
 *(.vector_27)
 .vector_27     0x000000009d03f560        0x8 /opt/microchip/xc32/v2.40/bin/bin/../../lib/gcc/pic32mx/4.8.3/../../../../pic32mx/lib/libpic32.a(vector27.o)
                0x000000009d03f560                __vector_dispatch_27
                0x0000000000000001                ASSERT (((_vector_spacing == 0x0) || (SIZEOF (.vector_27) <= (_vector_spacing << 0x5))), function at exception vector 27 too large)

.vector_28      0x000000009d03f580        0x8
 *(.vector_28)
 .vector_28     0x000000009d03f580        0x8 /opt/microchip/xc32/v2.40/bin/bin/../../lib/gcc/pic32mx/4.8.3/../../../../pic32mx/lib/libpic32.a(vector28.o)
                0x000000009d03f580                __vector_dispatch_28
                0x0000000000000001                ASSERT (((_vector_spacing == 0x0) || (SIZEOF (.vector_28) <= (_vector_spacing << 0x5))), function at exception vector 28 too large)

.vector_29      0x000000009d03f5a0        0x8
 *(.vector_29)
 .vector_29     0x000000009d03f5a0        0x8 /opt/microchip/xc32/v2.40/bin/bin/../../lib/gcc/pic32mx/4.8.3/../../../../pic32mx/lib/libpic32.a(vector29.o)
                0x000000009d03f5a0                __vector_dispatch_29
                0x0000000000000001                ASSERT (((_vector_spacing == 0x0) || (SIZEOF (.vector_29) <= (_vector_spacing << 0x5))), function at exception vector 29 too large)

.vector_30      0x000000009d03f5c0        0x8
 *(.vector_30)
 .vector_30     0x000000009d03f5c0        0x8 build/default/debug/usb/usb_device.o
                0x000000009d03f5c0                __vector_dispatch_30
                0x0000000000000001                ASSERT (((_vector_spacing == 0x0) || (SIZEOF (.vector_30) <= (_vector_spacing << 0x5))), function at exception vector 30 too large)

.vector_31      0x000000009d03f5e0        0x8
 *(.vector_31)
 .vector_31     0x000000009d03f5e0        0x8 /opt/microchip/xc32/v2.40/bin/bin/../../lib/gcc/pic32mx/4.8.3/../../../../pic32mx/lib/libpic32.a(vector31.o)
                0x000000009d03f5e0                __vector_dispatch_31
                0x0000000000000001                ASSERT (((_vector_spacing == 0x0) || (SIZEOF (.vector_31) <= (_vector_spacing << 0x5))), function at exception vector 31 too large)

.vector_32      0x000000009d03f600        0x8
 *(.vector_32)
 .vector_32     0x000000009d03f600        0x8 build/default/debug/uart/uart.o
                0x000000009d03f600                __vector_dispatch_32
                0x0000000000000001                ASSERT (((_vector_spacing == 0x0) || (SIZEOF (.vector_32) <= (_vector_spacing << 0x5))), function at exception vector 32 too large)

.vector_33      0x000000009d03f620        0x8
 *(.vector_33)
 .vector_33     0x000000009d03f620        0x8 /opt/microchip/xc32/v2.40/bin/bin/../../lib/gcc/pic32mx/4.8.3/../../../../pic32mx/lib/libpic32.a(vector33.o)
                0x000000009d03f620                __vector_dispatch_33
                0x0000000000000001                ASSERT (((_vector_spacing == 0x0) || (SIZEOF (.vector_33) <= (_vector_spacing << 0x5))), function at exception vector 33 too large)

.vector_34      0x000000009d03f640        0x8
 *(.vector_34)
 .vector_34     0x000000009d03f640        0x8 /opt/microchip/xc32/v2.40/bin/bin/../../lib/gcc/pic32mx/4.8.3/../../../../pic32mx/lib/libpic32.a(vector34.o)
                0x000000009d03f640                __vector_dispatch_34
                0x0000000000000001                ASSERT (((_vector_spacing == 0x0) || (SIZEOF (.vector_34) <= (_vector_spacing << 0x5))), function at exception vector 34 too large)

.vector_35      0x000000009d03f660        0x8
 *(.vector_35)
 .vector_35     0x000000009d03f660        0x8 /opt/microchip/xc32/v2.40/bin/bin/../../lib/gcc/pic32mx/4.8.3/../../../../pic32mx/lib/libpic32.a(vector35.o)
                0x000000009d03f660                __vector_dispatch_35
                0x0000000000000001                ASSERT (((_vector_spacing == 0x0) || (SIZEOF (.vector_35) <= (_vector_spacing << 0x5))), function at exception vector 35 too large)

.vector_36      0x000000009d03f680        0x8
 *(.vector_36)
 .vector_36     0x000000009d03f680        0x8 /opt/microchip/xc32/v2.40/bin/bin/../../lib/gcc/pic32mx/4.8.3/../../../../pic32mx/lib/libpic32.a(vector36.o)
                0x000000009d03f680                __vector_dispatch_36
                0x0000000000000001                ASSERT (((_vector_spacing == 0x0) || (SIZEOF (.vector_36) <= (_vector_spacing << 0x5))), function at exception vector 36 too large)

.vector_37      0x000000009d03f6a0        0x8
 *(.vector_37)
 .vector_37     0x000000009d03f6a0        0x8 build/default/debug/uart/debug_uart.o
                0x000000009d03f6a0                __vector_dispatch_37
                0x0000000000000001                ASSERT (((_vector_spacing == 0x0) || (SIZEOF (.vector_37) <= (_vector_spacing << 0x5))), function at exception vector 37 too large)

.vector_38      0x000000009d03f6c0        0x8
 *(.vector_38)
 .vector_38     0x000000009d03f6c0        0x8 /opt/microchip/xc32/v2.40/bin/bin/../../lib/gcc/pic32mx/4.8.3/../../../../pic32mx/lib/libpic32.a(vector38.o)
                0x000000009d03f6c0                __vector_dispatch_38
                0x0000000000000001                ASSERT (((_vector_spacing == 0x0) || (SIZEOF (.vector_38) <= (_vector_spacing << 0x5))), function at exception vector 38 too large)

.vector_39      0x000000009d03f6e0        0x8
 *(.vector_39)
 .vector_39     0x000000009d03f6e0        0x8 /opt/microchip/xc32/v2.40/bin/bin/../../lib/gcc/pic32mx/4.8.3/../../../../pic32mx/lib/libpic32.a(vector39.o)
                0x000000009d03f6e0                __vector_dispatch_39
                0x0000000000000001                ASSERT (((_vector_spacing == 0x0) || (SIZEOF (.vector_39) <= (_vector_spacing << 0x5))), function at exception vector 39 too large)

.vector_40      0x000000009d03f700        0x8
 *(.vector_40)
 .vector_40     0x000000009d03f700        0x8 /opt/microchip/xc32/v2.40/bin/bin/../../lib/gcc/pic32mx/4.8.3/../../../../pic32mx/lib/libpic32.a(vector40.o)
                0x000000009d03f700                __vector_dispatch_40
                0x0000000000000001                ASSERT (((_vector_spacing == 0x0) || (SIZEOF (.vector_40) <= (_vector_spacing << 0x5))), function at exception vector 40 too large)

.vector_41      0x000000009d03f720        0x8
 *(.vector_41)
 .vector_41     0x000000009d03f720        0x8 /opt/microchip/xc32/v2.40/bin/bin/../../lib/gcc/pic32mx/4.8.3/../../../../pic32mx/lib/libpic32.a(vector41.o)
                0x000000009d03f720                __vector_dispatch_41
                0x0000000000000001                ASSERT (((_vector_spacing == 0x0) || (SIZEOF (.vector_41) <= (_vector_spacing << 0x5))), function at exception vector 41 too large)

.vector_42      0x000000009d03f740        0x8
 *(.vector_42)
 .vector_42     0x000000009d03f740        0x8 /opt/microchip/xc32/v2.40/bin/bin/../../lib/gcc/pic32mx/4.8.3/../../../../pic32mx/lib/libpic32.a(vector42.o)
                0x000000009d03f740                __vector_dispatch_42
                0x0000000000000001                ASSERT (((_vector_spacing == 0x0) || (SIZEOF (.vector_42) <= (_vector_spacing << 0x5))), function at exception vector 42 too large)

.vector_43      0x000000009d03f760        0x8
 *(.vector_43)
 .vector_43     0x000000009d03f760        0x8 /opt/microchip/xc32/v2.40/bin/bin/../../lib/gcc/pic32mx/4.8.3/../../../../pic32mx/lib/libpic32.a(vector43.o)
                0x000000009d03f760                __vector_dispatch_43
                0x0000000000000001                ASSERT (((_vector_spacing == 0x0) || (SIZEOF (.vector_43) <= (_vector_spacing << 0x5))), function at exception vector 43 too large)

.vector_44      0x000000009d03f780        0x0
 *(.vector_44)
                0x0000000000000001                ASSERT (((_vector_spacing == 0x0) || (SIZEOF (.vector_44) <= (_vector_spacing << 0x5))), function at exception vector 44 too large)

.vector_45      0x000000009d03f7a0        0x0
 *(.vector_45)
                0x0000000000000001                ASSERT (((_vector_spacing == 0x0) || (SIZEOF (.vector_45) <= (_vector_spacing << 0x5))), function at exception vector 45 too large)

.vector_46      0x000000009d03f7c0        0x0
 *(.vector_46)
                0x0000000000000001                ASSERT (((_vector_spacing == 0x0) || (SIZEOF (.vector_46) <= (_vector_spacing << 0x5))), function at exception vector 46 too large)

.vector_47      0x000000009d03f7e0        0x0
 *(.vector_47)
                0x0000000000000001                ASSERT (((_vector_spacing == 0x0) || (SIZEOF (.vector_47) <= (_vector_spacing << 0x5))), function at exception vector 47 too large)

.vector_48      0x000000009d03f800        0x0
 *(.vector_48)
                0x0000000000000001                ASSERT (((_vector_spacing == 0x0) || (SIZEOF (.vector_48) <= (_vector_spacing << 0x5))), function at exception vector 48 too large)

.vector_49      0x000000009d03f820        0x0
 *(.vector_49)
                0x0000000000000001                ASSERT (((_vector_spacing == 0x0) || (SIZEOF (.vector_49) <= (_vector_spacing << 0x5))), function at exception vector 49 too large)

.vector_50      0x000000009d03f840        0x0
 *(.vector_50)
                0x0000000000000001                ASSERT (((_vector_spacing == 0x0) || (SIZEOF (.vector_50) <= (_vector_spacing << 0x5))), function at exception vector 50 too large)

.vector_51      0x000000009d03f860        0x0
 *(.vector_51)
                0x0000000000000001                ASSERT (((_vector_spacing == 0x0) || (SIZEOF (.vector_51) <= (_vector_spacing << 0x5))), function at exception vector 51 too large)

.vector_52      0x000000009d03f880        0x0
 *(.vector_52)
                0x0000000000000001                ASSERT (((_vector_spacing == 0x0) || (SIZEOF (.vector_52) <= (_vector_spacing << 0x5))), function at exception vector 52 too large)

.vector_53      0x000000009d03f8a0        0x0
 *(.vector_53)
                0x0000000000000001                ASSERT (((_vector_spacing == 0x0) || (SIZEOF (.vector_53) <= (_vector_spacing << 0x5))), function at exception vector 53 too large)

.vector_54      0x000000009d03f8c0        0x0
 *(.vector_54)
                0x0000000000000001                ASSERT (((_vector_spacing == 0x0) || (SIZEOF (.vector_54) <= (_vector_spacing << 0x5))), function at exception vector 54 too large)

.vector_55      0x000000009d03f8e0        0x0
 *(.vector_55)
                0x0000000000000001                ASSERT (((_vector_spacing == 0x0) || (SIZEOF (.vector_55) <= (_vector_spacing << 0x5))), function at exception vector 55 too large)

.vector_56      0x000000009d03f900        0x0
 *(.vector_56)
                0x0000000000000001                ASSERT (((_vector_spacing == 0x0) || (SIZEOF (.vector_56) <= (_vector_spacing << 0x5))), function at exception vector 56 too large)

.vector_57      0x000000009d03f920        0x0
 *(.vector_57)
                0x0000000000000001                ASSERT (((_vector_spacing == 0x0) || (SIZEOF (.vector_57) <= (_vector_spacing << 0x5))), function at exception vector 57 too large)

.vector_58      0x000000009d03f940        0x0
 *(.vector_58)
                0x0000000000000001                ASSERT (((_vector_spacing == 0x0) || (SIZEOF (.vector_58) <= (_vector_spacing << 0x5))), function at exception vector 58 too large)

.vector_59      0x000000009d03f960        0x0
 *(.vector_59)
                0x0000000000000001                ASSERT (((_vector_spacing == 0x0) || (SIZEOF (.vector_59) <= (_vector_spacing << 0x5))), function at exception vector 59 too large)

.vector_60      0x000000009d03f980        0x0
 *(.vector_60)
                0x0000000000000001                ASSERT (((_vector_spacing == 0x0) || (SIZEOF (.vector_60) <= (_vector_spacing << 0x5))), function at exception vector 60 too large)

.vector_61      0x000000009d03f9a0        0x0
 *(.vector_61)
                0x0000000000000001                ASSERT (((_vector_spacing == 0x0) || (SIZEOF (.vector_61) <= (_vector_spacing << 0x5))), function at exception vector 61 too large)

.vector_62      0x000000009d03f9c0        0x0
 *(.vector_62)
                0x0000000000000001                ASSERT (((_vector_spacing == 0x0) || (SIZEOF (.vector_62) <= (_vector_spacing << 0x5))), function at exception vector 62 too large)

.vector_63      0x000000009d03f9e0        0x0
 *(.vector_63)
                0x0000000000000001                ASSERT (((_vector_spacing == 0x0) || (SIZEOF (.vector_63) <= (_vector_spacing << 0x5))), function at exception vector 63 too large)

.startup
 *(.startup)

.text           0x000000009d000000        0x0
 *(.stub .gnu.linkonce.t.*)
 *(.text.*personality*)
 *(.mips16.fn.*)
 *(.mips16.call.*)
 *(.gnu.warning)
                0x000000009d000000                . = ALIGN (0x4)

.init           0x000000009d000000        0x0
 *crti.o(.init)
 *crtbegin.o(.init)
 *(EXCLUDE_FILE(*crtn.o *crtend?.o *crtend.o) .init)
 *crtend.o(.init)
 *crtn.o(.init)
                0x000000009d000000                . = ALIGN (0x4)

.fini           0x000000009d000000        0x0
 *(.fini)
                0x000000009d000000                . = ALIGN (0x4)

.preinit_array  0x000000009d000000        0x0
                0x000000009d000000                PROVIDE (__preinit_array_start, .)
 *(.preinit_array)
                0x000000009d000000                PROVIDE (__preinit_array_end, .)
                0x000000009d000000                . = ALIGN (0x4)

.init_array     0x000000009d000000        0x0
                0x000000009d000000                PROVIDE (__init_array_start, .)
 *(SORT(.init_array.*))
 *(.init_array)
                0x000000009d000000                PROVIDE (__init_array_end, .)
                0x000000009d000000                . = ALIGN (0x4)

.fini_array     0x000000009d000000        0x0
                0x000000009d000000                PROVIDE (__fini_array_start, .)
 *(SORT(.fini_array.*))
 *(.fini_array)
                0x000000009d000000                PROVIDE (__fini_array_end, .)
                0x000000009d000000                . = ALIGN (0x4)

.ctors          0x000000009d000000        0x0
 *crtbegin.o(.ctors)
 *crtbegin?.o(.ctors)
 *(EXCLUDE_FILE(*crtend?.o *crtend.o) .ctors)
 *(SORT(.ctors.*))
 *(.ctors)
                0x000000009d000000                . = ALIGN (0x4)

.dtors          0x000000009d000000        0x0
 *crtbegin.o(.dtors)
 *crtbegin?.o(.dtors)
 *(EXCLUDE_FILE(*crtend?.o *crtend.o) .dtors)
 *(SORT(.dtors.*))
 *(.dtors)
                0x000000009d000000                . = ALIGN (0x4)

.rodata         0x000000009d000000        0x0
 *(.gnu.linkonce.r.*)
 *(.rodata1)
                0x000000009d000000                . = ALIGN (0x4)

.sdata2         0x000000009fc00490        0x0
 *(.sdata2 .sdata2.* .gnu.linkonce.s2.*)
                0x000000009fc00490                . = ALIGN (0x4)

.sbss2          0x000000009fc00490        0x0
 *(.sbss2 .sbss2.* .gnu.linkonce.sb2.*)
                0x000000009fc00490                . = ALIGN (0x4)

.eh_frame_hdr
 *(.eh_frame_hdr)
                0x000000009fc00490                . = ALIGN (0x4)

.eh_frame
 *(.eh_frame)
                0x000000009fc00490                . = ALIGN (0x4)

.gcc_except_table
 *(.gcc_except_table .gcc_except_table.*)
                0x000000009fc00490                . = ALIGN (0x4)

.dbg_data       0x00000000a0000000        0x0
                0x00000000a0000000                . = (. + DEFINED (_DEBUGGER)?0x200:0x0)

.jcr            0x00000000a0000000        0x0
 *(.jcr)
                0x00000000a0000000                . = ALIGN (0x4)

.eh_frame
 *(.eh_frame)
                0x00000000a0000000                . = ALIGN (0x4)

.gcc_except_table
 *(.gcc_except_table .gcc_except_table.*)
                0x00000000a0000000                . = ALIGN (0x4)

.persist        0x00000000a0000000        0x8
                0x00000000a0000000                _persist_begin = .
 *(.persist .persist.*)
 *(.pbss .pbss.*)
 .pbss          0x00000000a0000000        0x4 build/default/debug/net/DNS.o
 .pbss          0x00000000a0000004        0x2 build/default/debug/net/TCP.o
 .pbss          0x00000000a0000006        0x2 build/default/debug/net/UDP.o
                0x00000000a0000008                . = ALIGN (0x4)
                0x00000000a0000008                _persist_end = .

.data           0x00000000a0000008        0x0
 *(.gnu.linkonce.d.*)
 *(.data1)
                0x00000000a0000008                . = ALIGN (0x4)
                0x00000000a0000008                . = .
                0x00000000a0008000                _gp = (ALIGN (0x10) + 0x7ff0)

.got            0x00000000a0000008        0x0
 *(.got.plt)
 *(.got)
                0x00000000a0000008                . = ALIGN (0x4)

.sdata          0x00000000a0000008       0x1c
                0x00000000a0000008                _sdata_begin = .
 *(.sdata .sdata.* .gnu.linkonce.s.*)
 .sdata         0x00000000a0000008        0x1 build/default/debug/fatfs/diskio.o
                0x00000000a0000008                USBStatus
 *fill*         0x00000000a0000009        0x3 
 .sdata         0x00000000a000000c        0x8 build/default/debug/net/DNS.o
 .sdata         0x00000000a0000014        0x4 build/default/debug/net/Helpers.o
 .sdata         0x00000000a0000018        0x1 build/default/debug/net/SNTP.o
 .sdata         0x00000000a0000019        0x2 build/default/debug/net/TCP.o
 .sdata         0x00000000a000001b        0x2 build/default/debug/net/UDP.o
 *fill*         0x00000000a000001d        0x3 
 .sdata         0x00000000a0000020        0x4 /opt/microchip/xc32/v2.40/bin/bin/../../lib/gcc/pic32mx/4.8.3/../../../../pic32mx/lib/libpic32.a(xc32_uart.o)
                0x00000000a0000020                __XC_UART
                0x00000000a0000024                . = ALIGN (0x4)
                0x00000000a0000024                _sdata_end = .

.lit8
 *(.lit8)

.lit4
 *(.lit4)
                0x00000000a0000024                . = ALIGN (0x4)
                0x00000000a0000024                _data_end = .
                0x00000000a0000024                _bss_begin = .

.sbss           0x00000000a0000024      0x148
                0x00000000a0000024                _sbss_begin = .
 *(.dynsbss)
 *(.sbss .sbss.* .gnu.linkonce.sb.*)
 .sbss          0x00000000a0000024        0x8 build/default/debug/delay/delay.o
 .sbss          0x00000000a000002c        0xc build/default/debug/fatfs/ff.o
 .sbss          0x00000000a0000038        0x8 build/default/debug/fatfs/SPIFlash.o
 .sbss          0x00000000a0000040        0x4 build/default/debug/net/ARP.o
 .sbss          0x00000000a0000044        0x4 build/default/debug/net/DHCP.o
                0x00000000a0000044                DHCPClientInitializedOnce
 .sbss          0x00000000a0000048       0x14 build/default/debug/net/DNS.o
 .sbss          0x00000000a000005c       0x10 build/default/debug/net/ENC28J60.o
 .sbss          0x00000000a000006c        0x8 build/default/debug/net/GenericTCPServer.o
 .sbss          0x00000000a0000074        0x4 build/default/debug/net/IP.o
 .sbss          0x00000000a0000078        0x8 build/default/debug/net/MPFS2.o
 .sbss          0x00000000a0000080       0x10 build/default/debug/net/SNTP.o
 .sbss          0x00000000a0000090        0xc build/default/debug/net/StackTsk.o
 .sbss          0x00000000a000009c        0xc build/default/debug/net/Tick.o
 .sbss          0x00000000a00000a8        0x8 build/default/debug/net/UDP.o
 .sbss          0x00000000a00000b0        0x8 build/default/debug/time/time.o
 .sbss          0x00000000a00000b8        0x4 build/default/debug/usb/event.o
                0x00000000a00000b8                deviceAttached
 .sbss          0x00000000a00000bc        0x8 build/default/debug/main.o
 *(.scommon)
 .scommon       0x00000000a00000c4        0x0 build/default/debug/config/config.o
 .scommon       0x00000000a00000c4        0x1 build/default/debug/net/ENC28J60.o
                0x00000000a00000c4                tcpneedReset
 .scommon       0x00000000a00000c5        0x1 build/default/debug/net/HTTP2.o
                0x00000000a00000c5                curHTTPID
 .scommon       0x00000000a00000c6        0x6 build/default/debug/net/UDP.o
                0x00000000a00000c6                UDPTxCount
                0x00000000a00000c8                activeUDPSocket
                0x00000000a00000ca                UDPRxCount
 .scommon       0x00000000a00000cc        0x4 build/default/debug/uart/uart.o
                0x00000000a00000cc                UART_RxHead
                0x00000000a00000ce                UART_RxTail
 .scommon       0x00000000a00000d0        0x5 build/default/debug/uart/debug_uart.o
                0x00000000a00000d0                debug_UART_RxHead
                0x00000000a00000d2                debug_UART_RxTail
                0x00000000a00000d4                debug_ascii_line
 *fill*         0x00000000a00000d5        0x3 
 .scommon       0x00000000a00000d8       0x5c build/default/debug/usb/usb_device.o
                0x00000000a00000d8                pDst
                0x00000000a00000dc                USBDeferINDataStagePackets
                0x00000000a00000e0                CtrlTrfData
                0x00000000a00000e8                USBDeferOUTDataStagePackets
                0x00000000a00000ec                USBDeviceState
                0x00000000a00000f0                controlTransferState
                0x00000000a00000f1                endpoint_number
                0x00000000a00000f4                ep_data_out
                0x00000000a00000f8                USBStatusStageEnabledFlag1
                0x00000000a00000fc                USBStatusStageEnabledFlag2
                0x00000000a0000100                BothEP0OutUOWNsSet
                0x00000000a0000104                pBDTEntryEP0OutNext
                0x00000000a0000108                USBBusIsSuspended
                0x00000000a000010c                USBStatusStageTimeoutCounter
                0x00000000a0000110                SetupPkt
                0x00000000a0000118                ep_data_in
                0x00000000a000011b                shortPacketStatus
                0x00000000a000011c                pBDTEntryEP0OutCurrent
                0x00000000a0000120                USBActiveConfiguration
                0x00000000a0000124                RemoteWakeup
                0x00000000a0000128                USTATcopy
                0x00000000a000012c                USBAlternateInterface
                0x00000000a0000130                USBDeferStatusStagePacket
 .scommon       0x00000000a0000134       0x38 build/default/debug/usb/usb_function_cdc.o
                0x00000000a0000134                control_signal_bitmap
                0x00000000a0000138                cdc_tx_len
                0x00000000a000013c                pCDCSrc
                0x00000000a0000140                CDCDataOutHandle
                0x00000000a0000144                cdc_rx_len
                0x00000000a0000148                line_coding
                0x00000000a0000150                BaudRateGen
                0x00000000a0000154                CDCDataInHandle
                0x00000000a0000158                cdc_trf_state
                0x00000000a000015c                pCDCDst
                0x00000000a0000160                cdc_mem_type
                0x00000000a0000164                dummy_encapsulated_cmd_response
                0x00000000a000016c                _sbss_end = .
                0x00000000a000016c                . = ALIGN (0x4)

.bss            0x00000000a0000200     0x15d8
 *(.dynbss)
 *(COMMON)
 COMMON         0x00000000a0000200      0x109 build/default/debug/config/config.o
                0x00000000a0000200                AppConfig
                0x00000000a0000274                config
 *fill*         0x00000000a0000309        0x3 
 COMMON         0x00000000a000030c        0x9 build/default/debug/CustomHTTPApp.o
                0x00000000a000030c                token
 *fill*         0x00000000a0000315        0x3 
 COMMON         0x00000000a0000318       0xb4 build/default/debug/net/HTTP2.o
                0x00000000a0000318                curHTTP
                0x00000000a00003a4                httpStubs
 COMMON         0x00000000a00003cc        0xa build/default/debug/net/StackTsk.o
                0x00000000a00003cc                remoteNode
 *fill*         0x00000000a00003d6        0x2 
 COMMON         0x00000000a00003d8       0x8c build/default/debug/net/UDP.o
                0x00000000a00003d8                UDPSocketInfo
 COMMON         0x00000000a0000464      0x100 build/default/debug/uart/uart.o
                0x00000000a0000464                UART_RxBuf
 COMMON         0x00000000a0000564       0x40 build/default/debug/uart/debug_uart.o
                0x00000000a0000564                debug_UART_RxBuf
 *fill*         0x00000000a00005a4       0x5c 
 COMMON         0x00000000a0000600       0x93 build/default/debug/usb/usb_device.o
                0x00000000a0000600                BDT
                0x00000000a0000660                inPipes
                0x00000000a0000670                pBDTEntryIn
                0x00000000a000067c                pBDTEntryOut
                0x00000000a0000688                outPipes
 *fill*         0x00000000a0000693        0x1 
 COMMON         0x00000000a0000694       0x8a build/default/debug/usb/usb_function_cdc.o
                0x00000000a0000694                cdc_data_tx
                0x00000000a00006d4                cdc_data_rx
                0x00000000a0000714                cdc_notice
 *fill*         0x00000000a000071e        0x2 
 COMMON         0x00000000a0000720     0x10b8 build/default/debug/main.o
                0x00000000a0000720                buffer
                0x00000000a00007a0                FatFS
                0x00000000a00017d8                . = ALIGN ((. != 0x0)?0x4:0x1)
                0x00000000a00017d8                . = ALIGN (0x4)
                0x00000000a00017d8                _end = .
                0x00000000a00017d8                _bss_end = .
                0x0000000000010000                _bmxdudba_address = 0x10000
                0x0000000000010000                _bmxdupba_address = 0x10000

/DISCARD/
 *(.pdr)
 *(.rel.dyn)
 *(.note.GNU-stack)
 *(.note.GNU-stack)
 *(.gnu_debuglink)
 *(.gnu.lto_*)
 *(.discard)

.gptab.sdata
 *(.gptab.data)
 *(.gptab.sdata)

.gptab.sbss
 *(.gptab.bss)
 *(.gptab.sbss)

.mdebug.abi32   0x00000000a00017d8        0x0
 *(.mdebug.abi32)
 .mdebug.abi32  0x00000000a00017d8        0x0 build/default/debug/config/config.o
 .mdebug.abi32  0x00000000a00017d8        0x0 build/default/debug/delay/delay.o
 .mdebug.abi32  0x00000000a00017d8        0x0 build/default/debug/fatfs/ff.o
 .mdebug.abi32  0x00000000a00017d8        0x0 build/default/debug/fatfs/ffsystem.o
 .mdebug.abi32  0x00000000a00017d8        0x0 build/default/debug/fatfs/ffunicode.o
 .mdebug.abi32  0x00000000a00017d8        0x0 build/default/debug/fatfs/SPIFlash.o
 .mdebug.abi32  0x00000000a00017d8        0x0 build/default/debug/fatfs/diskio.o
 .mdebug.abi32  0x00000000a00017d8        0x0 build/default/debug/net/Announce.o
 .mdebug.abi32  0x00000000a00017d8        0x0 build/default/debug/net/ARCFOUR.o
 .mdebug.abi32  0x00000000a00017d8        0x0 build/default/debug/net/ARP.o
 .mdebug.abi32  0x00000000a00017d8        0x0 build/default/debug/net/AutoIP.o
 .mdebug.abi32  0x00000000a00017d8        0x0 build/default/debug/net/BerkeleyAPI.o
 .mdebug.abi32  0x00000000a00017d8        0x0 build/default/debug/net/BigInt.o
 .mdebug.abi32  0x00000000a00017d8        0x0 build/default/debug/CustomHTTPApp.o
 .mdebug.abi32  0x00000000a00017d8        0x0 build/default/debug/net/DHCP.o
 .mdebug.abi32  0x00000000a00017d8        0x0 build/default/debug/net/DNS.o
 .mdebug.abi32  0x00000000a00017d8        0x0 build/default/debug/net/ENC28J60.o
 .mdebug.abi32  0x00000000a00017d8        0x0 build/default/debug/net/FTP.o
 .mdebug.abi32  0x00000000a00017d8        0x0 build/default/debug/net/GenericTCPServer.o
 .mdebug.abi32  0x00000000a00017d8        0x0 build/default/debug/net/Hashes.o
 .mdebug.abi32  0x00000000a00017d8        0x0 build/default/debug/net/Helpers.o
 .mdebug.abi32  0x00000000a00017d8        0x0 build/default/debug/net/HTTP2.o
 .mdebug.abi32  0x00000000a00017d8        0x0 build/default/debug/net/ICMP.o
 .mdebug.abi32  0x00000000a00017d8        0x0 build/default/debug/net/IP.o
 .mdebug.abi32  0x00000000a00017d8        0x0 build/default/debug/net/MPFS2.o
 .mdebug.abi32  0x00000000a00017d8        0x0 build/default/debug/MPFSImg2.o
 .mdebug.abi32  0x00000000a00017d8        0x0 build/default/debug/net/NBNS.o
 .mdebug.abi32  0x00000000a00017d8        0x0 build/default/debug/net/Random.o
 .mdebug.abi32  0x00000000a00017d8        0x0 build/default/debug/net/Reboot.o
 .mdebug.abi32  0x00000000a00017d8        0x0 build/default/debug/net/RSA.o
 .mdebug.abi32  0x00000000a00017d8        0x0 build/default/debug/net/SMTP.o
 .mdebug.abi32  0x00000000a00017d8        0x0 build/default/debug/net/SNTP.o
 .mdebug.abi32  0x00000000a00017d8        0x0 build/default/debug/net/SSL.o
 .mdebug.abi32  0x00000000a00017d8        0x0 build/default/debug/net/StackTsk.o
 .mdebug.abi32  0x00000000a00017d8        0x0 build/default/debug/net/TCP.o
 .mdebug.abi32  0x00000000a00017d8        0x0 build/default/debug/net/Telnet.o
 .mdebug.abi32  0x00000000a00017d8        0x0 build/default/debug/net/Tick.o
 .mdebug.abi32  0x00000000a00017d8        0x0 build/default/debug/net/UDP.o
 .mdebug.abi32  0x00000000a00017d8        0x0 build/default/debug/net/ZeroconfHelper.o
 .mdebug.abi32  0x00000000a00017d8        0x0 build/default/debug/net/ZeroconfLinkLocal.o
 .mdebug.abi32  0x00000000a00017d8        0x0 build/default/debug/net/ZeroconfMulticastDNS.o
 .mdebug.abi32  0x00000000a00017d8        0x0 build/default/debug/nvram/nvram.o
 .mdebug.abi32  0x00000000a00017d8        0x0 build/default/debug/time/time.o
 .mdebug.abi32  0x00000000a00017d8        0x0 build/default/debug/uart/uart.o
 .mdebug.abi32  0x00000000a00017d8        0x0 build/default/debug/uart/debug_uart.o
 .mdebug.abi32  0x00000000a00017d8        0x0 build/default/debug/usb/event.o
 .mdebug.abi32  0x00000000a00017d8        0x0 build/default/debug/usb/usb_descriptors.o
 .mdebug.abi32  0x00000000a00017d8        0x0 build/default/debug/usb/usb_device.o
 .mdebug.abi32  0x00000000a00017d8        0x0 build/default/debug/usb/usb_function_cdc.o
 .mdebug.abi32  0x00000000a00017d8        0x0 build/default/debug/main.o
 .mdebug.abi32  0x00000000a00017d8        0x0 build/default/debug/common.o
 .mdebug.abi32  0x00000000a00017d8        0x0 /opt/microchip/xc32/v2.40/bin/bin/../../lib/gcc/pic32mx/4.8.3/../../../../pic32mx/lib/libmchp_peripheral.a(read_core_timer_lib.o)
 .mdebug.abi32  0x00000000a00017d8        0x0 /opt/microchip/xc32/v2.40/bin/bin/../../lib/gcc/pic32mx/4.8.3/../../../../pic32mx/lib/libmchp_peripheral_32MX270F256B.a(soft_reset_lib.o)
 .mdebug.abi32  0x00000000a00017d8        0x0 /opt/microchip/xc32/v2.40/bin/bin/../../lib/gcc/pic32mx/4.8.3/../../../../pic32mx/lib/libmchp_peripheral_32MX270F256B.a(int_enable_interrupts_lib.o)
 .mdebug.abi32  0x00000000a00017d8        0x0 /opt/microchip/xc32/v2.40/bin/bin/../../lib/gcc/pic32mx/4.8.3/../../../../pic32mx/lib/libmchp_peripheral_32MX270F256B.a(int_disable_interrupts_lib.o)
 .mdebug.abi32  0x00000000a00017d8        0x0 /opt/microchip/xc32/v2.40/bin/bin/../../lib/gcc/pic32mx/4.8.3/../../../../pic32mx/lib/libmchp_peripheral_32MX270F256B.a(int_restore_interrupts_lib.o)
 .mdebug.abi32  0x00000000a00017d8        0x0 /opt/microchip/xc32/v2.40/bin/bin/../../lib/gcc/pic32mx/4.8.3/../../../../pic32mx/lib/libmchp_peripheral_32MX270F256B.a(int_enable_mv_int_lib.o)
 .mdebug.abi32  0x00000000a00017d8        0x0 /opt/microchip/xc32/v2.40/bin/bin/../../lib/gcc/pic32mx/4.8.3/../../../../pic32mx/lib/libmchp_peripheral_32MX270F256B.a(int_tbl_lib.o)
 .mdebug.abi32  0x00000000a00017d8        0x0 /opt/microchip/xc32/v2.40/bin/bin/../../lib/gcc/pic32mx/4.8.3/../../../../pic32mx/lib/libmchp_peripheral_32MX270F256B.a(rtcc_set_time_date_lib.o)
 .mdebug.abi32  0x00000000a00017d8        0x0 /opt/microchip/xc32/v2.40/bin/bin/../../lib/gcc/pic32mx/4.8.3/../../../../pic32mx/lib/libmchp_peripheral_32MX270F256B.a(nvm_erase_page_lib.o)
 .mdebug.abi32  0x00000000a00017d8        0x0 /opt/microchip/xc32/v2.40/bin/bin/../../lib/gcc/pic32mx/4.8.3/../../../../pic32mx/lib/libmchp_peripheral_32MX270F256B.a(nvm_operation_lib.o)
 .mdebug.abi32  0x00000000a00017d8        0x0 /opt/microchip/xc32/v2.40/bin/bin/../../lib/gcc/pic32mx/4.8.3/../../../../pic32mx/lib/libmchp_peripheral_32MX270F256B.a(nvm_write_word_lib.o)
 .mdebug.abi32  0x00000000a00017d8        0x0 /opt/microchip/xc32/v2.40/bin/bin/../../lib/gcc/pic32mx/4.8.3/../../../../pic32mx/lib/libmchp_peripheral_32MX270F256B.a(_rtcc_set_time_and_date_lib.o)
 .mdebug.abi32  0x00000000a00017d8        0x0 /opt/microchip/xc32/v2.40/bin/bin/../../lib/gcc/pic32mx/4.8.3/../../../../pic32mx/lib/libmchp_peripheral_32MX270F256B.a(_rtcc_wait_clock_off_lib.o)
 .mdebug.abi32  0x00000000a00017d8        0x0 /opt/microchip/xc32/v2.40/bin/bin/../../lib/gcc/pic32mx/4.8.3/libgcc.a(_udivdi3.o)
 .mdebug.abi32  0x00000000a00017d8        0x0 /opt/microchip/xc32/v2.40/bin/bin/../../lib/gcc/pic32mx/4.8.3/libgcc.a(floatunsisf.o)
 .mdebug.abi32  0x00000000a00017d8        0x0 /opt/microchip/xc32/v2.40/bin/bin/../../lib/gcc/pic32mx/4.8.3/../../../../pic32mx/lib/libpic32.a(default-bootstrap-exception-handler.o)
 .mdebug.abi32  0x00000000a00017d8        0x0 /opt/microchip/xc32/v2.40/bin/bin/../../lib/gcc/pic32mx/4.8.3/../../../../pic32mx/lib/libpic32.a(default-on-reset.o)
 .mdebug.abi32  0x00000000a00017d8        0x0 /opt/microchip/xc32/v2.40/bin/bin/../../lib/gcc/pic32mx/4.8.3/../../../../pic32mx/lib/libpic32.a(default-on-bootstrap.o)
 .mdebug.abi32  0x00000000a00017d8        0x0 /opt/microchip/xc32/v2.40/bin/bin/../../lib/gcc/pic32mx/4.8.3/../../../../pic32mx/lib/libpic32.a(xc32_uart.o)
 .mdebug.abi32  0x00000000a00017d8        0x0 /opt/microchip/xc32/v2.40/bin/bin/../../lib/gcc/pic32mx/4.8.3/../../../../pic32mx/lib/libpic32.a(defaultinterrupt.o)
 .mdebug.abi32  0x00000000a00017d8        0x0 /opt/microchip/xc32/v2.40/bin/bin/../../lib/gcc/pic32mx/4.8.3/../../../../pic32mx/lib/libc.a(atoi.o)
 .mdebug.abi32  0x00000000a00017d8        0x0 /opt/microchip/xc32/v2.40/bin/bin/../../lib/gcc/pic32mx/4.8.3/../../../../pic32mx/lib/libc.a(atol.o)
 .mdebug.abi32  0x00000000a00017d8        0x0 /opt/microchip/xc32/v2.40/bin/bin/../../lib/gcc/pic32mx/4.8.3/../../../../pic32mx/lib/libc.a(ctime.o)
 .mdebug.abi32  0x00000000a00017d8        0x0 /opt/microchip/xc32/v2.40/bin/bin/../../lib/gcc/pic32mx/4.8.3/../../../../pic32mx/lib/libc.a(ctype.o)
 .mdebug.abi32  0x00000000a00017d8        0x0 /opt/microchip/xc32/v2.40/bin/bin/../../lib/gcc/pic32mx/4.8.3/../../../../pic32mx/lib/libc.a(mktime.o)
 .mdebug.abi32  0x00000000a00017d8        0x0 /opt/microchip/xc32/v2.40/bin/bin/../../lib/gcc/pic32mx/4.8.3/../../../../pic32mx/lib/libc.a(puts.o)
 .mdebug.abi32  0x00000000a00017d8        0x0 /opt/microchip/xc32/v2.40/bin/bin/../../lib/gcc/pic32mx/4.8.3/../../../../pic32mx/lib/libc.a(rand.o)
 .mdebug.abi32  0x00000000a00017d8        0x0 /opt/microchip/xc32/v2.40/bin/bin/../../lib/gcc/pic32mx/4.8.3/../../../../pic32mx/lib/libc.a(strncpy.o)
 .mdebug.abi32  0x00000000a00017d8        0x0 /opt/microchip/xc32/v2.40/bin/bin/../../lib/gcc/pic32mx/4.8.3/../../../../pic32mx/lib/libc.a(printf_cdfFnopuxX.eo)
 .mdebug.abi32  0x00000000a00017d8        0x0 /opt/microchip/xc32/v2.40/bin/bin/../../lib/gcc/pic32mx/4.8.3/../../../../pic32mx/lib/libc.a(snprintf_cdnopuxX.eo)
 .mdebug.abi32  0x00000000a00017d8        0x0 /opt/microchip/xc32/v2.40/bin/bin/../../lib/gcc/pic32mx/4.8.3/../../../../pic32mx/lib/libc.a(sprintf_cdnopsuxX.eo)
 .mdebug.abi32  0x00000000a00017d8        0x0 /opt/microchip/xc32/v2.40/bin/bin/../../lib/gcc/pic32mx/4.8.3/../../../../pic32mx/lib/libc.a(sscanf_cdnopuxX.eo)
 .mdebug.abi32  0x00000000a00017d8        0x0 /opt/microchip/xc32/v2.40/bin/bin/../../lib/gcc/pic32mx/4.8.3/../../../../pic32mx/lib/libc.a(vsnprintf_cdnopuxX.eo)
 .mdebug.abi32  0x00000000a00017d8        0x0 /opt/microchip/xc32/v2.40/bin/bin/../../lib/gcc/pic32mx/4.8.3/../../../../pic32mx/lib/libc.a(_iob.o)
 .mdebug.abi32  0x00000000a00017d8        0x0 /opt/microchip/xc32/v2.40/bin/bin/../../lib/gcc/pic32mx/4.8.3/../../../../pic32mx/lib/libc.a(_fputc_simple.o)
 .mdebug.abi32  0x00000000a00017d8        0x0 /opt/microchip/xc32/v2.40/bin/bin/../../lib/gcc/pic32mx/4.8.3/../../../../pic32mx/lib/libc.a(doscan_cdnopuxX.eo)
 .mdebug.abi32  0x00000000a00017d8        0x0 /opt/microchip/xc32/v2.40/bin/bin/../../lib/gcc/pic32mx/4.8.3/../../../../pic32mx/lib/libc.a(_flsbuf_simple.o)
 .mdebug.abi32  0x00000000a00017d8        0x0 /opt/microchip/xc32/v2.40/bin/bin/../../lib/gcc/pic32mx/4.8.3/../../../../pic32mx/lib/libc.a(fgetc.o)
 .mdebug.abi32  0x00000000a00017d8        0x0 /opt/microchip/xc32/v2.40/bin/bin/../../lib/gcc/pic32mx/4.8.3/../../../../pic32mx/lib/libc.a(ctypef.o)
 .mdebug.abi32  0x00000000a00017d8        0x0 /opt/microchip/xc32/v2.40/bin/bin/../../lib/gcc/pic32mx/4.8.3/../../../../pic32mx/lib/libc.a(ldpowers.o)
 .mdebug.abi32  0x00000000a00017d8        0x0 /opt/microchip/xc32/v2.40/bin/bin/../../lib/gcc/pic32mx/4.8.3/../../../../pic32mx/lib/libc.a(ungetc.o)
 .mdebug.abi32  0x00000000a00017d8        0x0 /opt/microchip/xc32/v2.40/bin/bin/../../lib/gcc/pic32mx/4.8.3/../../../../pic32mx/lib/libc.a(filbuf.o)
 .mdebug.abi32  0x00000000a00017d8        0x0 /opt/microchip/xc32/v2.40/bin/bin/../../lib/gcc/pic32mx/4.8.3/../../../../pic32mx/lib/libc.a(fflush.o)
 .mdebug.abi32  0x00000000a00017d8        0x0 /opt/microchip/xc32/v2.40/bin/bin/../../lib/gcc/pic32mx/4.8.3/../../../../pic32mx/lib/libc.a(doprnt_cdfFnopsuxX.eo)
 .mdebug.abi32  0x00000000a00017d8        0x0 /opt/microchip/xc32/v2.40/bin/bin/../../lib/gcc/pic32mx/4.8.3/../../../../pic32mx/lib/libe.a(_fixunsdfdi.o)
 .mdebug.abi32  0x00000000a00017d8        0x0 /opt/microchip/xc32/v2.40/bin/bin/../../lib/gcc/pic32mx/4.8.3/../../../../pic32mx/lib/libe.a(_orderdf2.o)
 .mdebug.abi32  0x00000000a00017d8        0x0 /opt/microchip/xc32/v2.40/bin/bin/../../lib/gcc/pic32mx/4.8.3/../../../../pic32mx/lib/libe.a(_fixdfdi.o)
 .mdebug.abi32  0x00000000a00017d8        0x0 /opt/microchip/xc32/v2.40/bin/bin/../../lib/gcc/pic32mx/4.8.3/libgcc.a(_floatundidf.o)
 .mdebug.abi32  0x00000000a00017d8        0x0 /opt/microchip/xc32/v2.40/bin/bin/../../lib/gcc/pic32mx/4.8.3/libgcc.a(_umoddi3.o)
 .mdebug.abi32  0x00000000a00017d8        0x0 /opt/microchip/xc32/v2.40/bin/bin/../../lib/gcc/pic32mx/4.8.3/libgcc.a(floatunsidf.o)
 .mdebug.abi32  0x00000000a00017d8        0x0 /opt/microchip/xc32/v2.40/bin/bin/../../lib/gcc/pic32mx/4.8.3/../../../../pic32mx/lib/libpic32.a(read.o)
 .mdebug.abi32  0x00000000a00017d8        0x0 /opt/microchip/xc32/v2.40/bin/bin/../../lib/gcc/pic32mx/4.8.3/../../../../pic32mx/lib/libpic32.a(write.o)
 .mdebug.abi32  0x00000000a00017d8        0x0 /opt/microchip/xc32/v2.40/bin/bin/../../lib/gcc/pic32mx/4.8.3/../../../../pic32mx/lib/libpic32.a(_mon_putc.o)

.mdebug.abiN32
 *(.mdebug.abiN32)

.mdebug.abi64
 *(.mdebug.abi64)

.mdebug.abiO64
 *(.mdebug.abiO64)

.mdebug.eabi32
 *(.mdebug.eabi32)

.mdebug.eabi64
 *(.mdebug.eabi64)

.gcc_compiled_long32
 *(.gcc_compiled_long32)

.gcc_compiled_long64
 *(.gcc_compiled_long64)

.stab
 *(.stab)

.stabstr
 *(.stabstr)

.stab.excl
 *(.stab.excl)

.stab.exclstr
 *(.stab.exclstr)

.stab.index
 *(.stab.index)

.stab.indexstr
 *(.stab.indexstr)

.comment        0x0000000000000000      0x2b6
 *(.comment)
 .comment       0x0000000000000000       0x3c build/default/debug/config/config.o
                                         0x3d (size before relaxing)
 .comment       0x0000000000000000       0x3d build/default/debug/delay/delay.o
 .comment       0x0000000000000000       0x3d build/default/debug/fatfs/ff.o
 .comment       0x0000000000000000       0x3d build/default/debug/fatfs/ffsystem.o
 .comment       0x0000000000000000       0x3d build/default/debug/fatfs/ffunicode.o
 .comment       0x0000000000000000       0x3d build/default/debug/fatfs/SPIFlash.o
 .comment       0x0000000000000000       0x3d build/default/debug/fatfs/diskio.o
 .comment       0x0000000000000000       0x3d build/default/debug/net/Announce.o
 .comment       0x0000000000000000       0x3d build/default/debug/net/ARCFOUR.o
 .comment       0x0000000000000000       0x3d build/default/debug/net/ARP.o
 .comment       0x0000000000000000       0x3d build/default/debug/net/AutoIP.o
 .comment       0x0000000000000000       0x3d build/default/debug/net/BerkeleyAPI.o
 .comment       0x0000000000000000       0x3d build/default/debug/net/BigInt.o
 .comment       0x0000000000000000       0x3d build/default/debug/CustomHTTPApp.o
 .comment       0x0000000000000000       0x3d build/default/debug/net/DHCP.o
 .comment       0x0000000000000000       0x3d build/default/debug/net/DNS.o
 .comment       0x0000000000000000       0x3d build/default/debug/net/ENC28J60.o
 .comment       0x0000000000000000       0x3d build/default/debug/net/FTP.o
 .comment       0x0000000000000000       0x3d build/default/debug/net/GenericTCPServer.o
 .comment       0x0000000000000000       0x3d build/default/debug/net/Hashes.o
 .comment       0x0000000000000000       0x3d build/default/debug/net/Helpers.o
 .comment       0x0000000000000000       0x3d build/default/debug/net/HTTP2.o
 .comment       0x0000000000000000       0x3d build/default/debug/net/ICMP.o
 .comment       0x0000000000000000       0x3d build/default/debug/net/IP.o
 .comment       0x0000000000000000       0x3d build/default/debug/net/MPFS2.o
 .comment       0x0000000000000000       0x3d build/default/debug/MPFSImg2.o
 .comment       0x0000000000000000       0x3d build/default/debug/net/NBNS.o
 .comment       0x0000000000000000       0x3d build/default/debug/net/Random.o
 .comment       0x0000000000000000       0x3d build/default/debug/net/Reboot.o
 .comment       0x0000000000000000       0x3d build/default/debug/net/RSA.o
 .comment       0x0000000000000000       0x3d build/default/debug/net/SMTP.o
 .comment       0x0000000000000000       0x3d build/default/debug/net/SNTP.o
 .comment       0x0000000000000000       0x3d build/default/debug/net/SSL.o
 .comment       0x0000000000000000       0x3d build/default/debug/net/StackTsk.o
 .comment       0x0000000000000000       0x3d build/default/debug/net/TCP.o
 .comment       0x0000000000000000       0x3d build/default/debug/net/Telnet.o
 .comment       0x0000000000000000       0x3d build/default/debug/net/Tick.o
 .comment       0x0000000000000000       0x3d build/default/debug/net/UDP.o
 .comment       0x0000000000000000       0x3d build/default/debug/net/ZeroconfHelper.o
 .comment       0x0000000000000000       0x3d build/default/debug/net/ZeroconfLinkLocal.o
 .comment       0x0000000000000000       0x3d build/default/debug/net/ZeroconfMulticastDNS.o
 .comment       0x0000000000000000       0x3d build/default/debug/nvram/nvram.o
 .comment       0x0000000000000000       0x3d build/default/debug/time/time.o
 .comment       0x0000000000000000       0x3d build/default/debug/uart/uart.o
 .comment       0x0000000000000000       0x3d build/default/debug/uart/debug_uart.o
 .comment       0x0000000000000000       0x3d build/default/debug/usb/event.o
 .comment       0x0000000000000000       0x3d build/default/debug/usb/usb_descriptors.o
 .comment       0x0000000000000000       0x3d build/default/debug/usb/usb_device.o
 .comment       0x0000000000000000       0x3d build/default/debug/usb/usb_function_cdc.o
 .comment       0x0000000000000000       0x3d build/default/debug/main.o
 .comment       0x0000000000000000       0x3d build/default/debug/common.o
 .comment       0x000000000000003c       0x3c /opt/microchip/xc32/v2.40/bin/bin/../../lib/gcc/pic32mx/4.8.3/../../../../pic32mx/lib/libmchp_peripheral.a(read_core_timer_lib.o)
                                         0x3d (size before relaxing)
 .comment       0x0000000000000000       0x3d /opt/microchip/xc32/v2.40/bin/bin/../../lib/gcc/pic32mx/4.8.3/../../../../pic32mx/lib/libmchp_peripheral_32MX270F256B.a(soft_reset_lib.o)
 .comment       0x0000000000000000       0x3d /opt/microchip/xc32/v2.40/bin/bin/../../lib/gcc/pic32mx/4.8.3/../../../../pic32mx/lib/libmchp_peripheral_32MX270F256B.a(int_enable_interrupts_lib.o)
 .comment       0x0000000000000000       0x3d /opt/microchip/xc32/v2.40/bin/bin/../../lib/gcc/pic32mx/4.8.3/../../../../pic32mx/lib/libmchp_peripheral_32MX270F256B.a(int_disable_interrupts_lib.o)
 .comment       0x0000000000000000       0x3d /opt/microchip/xc32/v2.40/bin/bin/../../lib/gcc/pic32mx/4.8.3/../../../../pic32mx/lib/libmchp_peripheral_32MX270F256B.a(int_restore_interrupts_lib.o)
 .comment       0x0000000000000000       0x3d /opt/microchip/xc32/v2.40/bin/bin/../../lib/gcc/pic32mx/4.8.3/../../../../pic32mx/lib/libmchp_peripheral_32MX270F256B.a(int_enable_mv_int_lib.o)
 .comment       0x0000000000000000       0x3d /opt/microchip/xc32/v2.40/bin/bin/../../lib/gcc/pic32mx/4.8.3/../../../../pic32mx/lib/libmchp_peripheral_32MX270F256B.a(int_tbl_lib.o)
 .comment       0x0000000000000000       0x3d /opt/microchip/xc32/v2.40/bin/bin/../../lib/gcc/pic32mx/4.8.3/../../../../pic32mx/lib/libmchp_peripheral_32MX270F256B.a(rtcc_set_time_date_lib.o)
 .comment       0x0000000000000000       0x3d /opt/microchip/xc32/v2.40/bin/bin/../../lib/gcc/pic32mx/4.8.3/../../../../pic32mx/lib/libmchp_peripheral_32MX270F256B.a(nvm_erase_page_lib.o)
 .comment       0x0000000000000000       0x3d /opt/microchip/xc32/v2.40/bin/bin/../../lib/gcc/pic32mx/4.8.3/../../../../pic32mx/lib/libmchp_peripheral_32MX270F256B.a(nvm_operation_lib.o)
 .comment       0x0000000000000000       0x3d /opt/microchip/xc32/v2.40/bin/bin/../../lib/gcc/pic32mx/4.8.3/../../../../pic32mx/lib/libmchp_peripheral_32MX270F256B.a(nvm_write_word_lib.o)
 .comment       0x0000000000000000       0x3d /opt/microchip/xc32/v2.40/bin/bin/../../lib/gcc/pic32mx/4.8.3/../../../../pic32mx/lib/libmchp_peripheral_32MX270F256B.a(_rtcc_set_time_and_date_lib.o)
 .comment       0x0000000000000000       0x3d /opt/microchip/xc32/v2.40/bin/bin/../../lib/gcc/pic32mx/4.8.3/../../../../pic32mx/lib/libmchp_peripheral_32MX270F256B.a(_rtcc_wait_clock_off_lib.o)
 .comment       0x0000000000000000       0x3d /opt/microchip/xc32/v2.40/bin/bin/../../lib/gcc/pic32mx/4.8.3/libgcc.a(_udivdi3.o)
 .comment       0x0000000000000000       0x3d /opt/microchip/xc32/v2.40/bin/bin/../../lib/gcc/pic32mx/4.8.3/libgcc.a(floatunsisf.o)
 .comment       0x0000000000000078       0x18 /opt/microchip/xc32/v2.40/bin/bin/../../lib/gcc/pic32mx/4.8.3/../../../../pic32mx/lib/libpic32.a(memcmp.o)
                                         0x19 (size before relaxing)
 .comment       0x0000000000000090       0x18 /opt/microchip/xc32/v2.40/bin/bin/../../lib/gcc/pic32mx/4.8.3/../../../../pic32mx/lib/libpic32.a(memset.o)
                                         0x19 (size before relaxing)
 .comment       0x00000000000000a8       0x19 /opt/microchip/xc32/v2.40/bin/bin/../../lib/gcc/pic32mx/4.8.3/../../../../pic32mx/lib/libpic32.a(strcmp.o)
                                         0x1a (size before relaxing)
 .comment       0x00000000000000c1       0x19 /opt/microchip/xc32/v2.40/bin/bin/../../lib/gcc/pic32mx/4.8.3/../../../../pic32mx/lib/libpic32.a(strlen.o)
                                         0x1a (size before relaxing)
 .comment       0x0000000000000000       0x3d /opt/microchip/xc32/v2.40/bin/bin/../../lib/gcc/pic32mx/4.8.3/../../../../pic32mx/lib/libpic32.a(default-bootstrap-exception-handler.o)
 .comment       0x0000000000000000       0x3d /opt/microchip/xc32/v2.40/bin/bin/../../lib/gcc/pic32mx/4.8.3/../../../../pic32mx/lib/libpic32.a(default-on-reset.o)
 .comment       0x0000000000000000       0x3d /opt/microchip/xc32/v2.40/bin/bin/../../lib/gcc/pic32mx/4.8.3/../../../../pic32mx/lib/libpic32.a(default-on-bootstrap.o)
 .comment       0x0000000000000000       0x3d /opt/microchip/xc32/v2.40/bin/bin/../../lib/gcc/pic32mx/4.8.3/../../../../pic32mx/lib/libpic32.a(xc32_uart.o)
 .comment       0x0000000000000000       0x3d /opt/microchip/xc32/v2.40/bin/bin/../../lib/gcc/pic32mx/4.8.3/../../../../pic32mx/lib/libpic32.a(defaultinterrupt.o)
 .comment       0x0000000000000000       0x3d /opt/microchip/xc32/v2.40/bin/bin/../../lib/gcc/pic32mx/4.8.3/../../../../pic32mx/lib/libc.a(atoi.o)
 .comment       0x0000000000000000       0x3d /opt/microchip/xc32/v2.40/bin/bin/../../lib/gcc/pic32mx/4.8.3/../../../../pic32mx/lib/libc.a(atol.o)
 .comment       0x0000000000000000       0x3d /opt/microchip/xc32/v2.40/bin/bin/../../lib/gcc/pic32mx/4.8.3/../../../../pic32mx/lib/libc.a(ctime.o)
 .comment       0x00000000000000da       0x4e /opt/microchip/xc32/v2.40/bin/bin/../../lib/gcc/pic32mx/4.8.3/../../../../pic32mx/lib/libc.a(ctype.o)
                                         0x8b (size before relaxing)
 .comment       0x0000000000000000       0x3d /opt/microchip/xc32/v2.40/bin/bin/../../lib/gcc/pic32mx/4.8.3/../../../../pic32mx/lib/libc.a(mktime.o)
 .comment       0x0000000000000000       0x3d /opt/microchip/xc32/v2.40/bin/bin/../../lib/gcc/pic32mx/4.8.3/../../../../pic32mx/lib/libc.a(puts.o)
 .comment       0x0000000000000000       0x3d /opt/microchip/xc32/v2.40/bin/bin/../../lib/gcc/pic32mx/4.8.3/../../../../pic32mx/lib/libc.a(rand.o)
 .comment       0x0000000000000000       0x3d /opt/microchip/xc32/v2.40/bin/bin/../../lib/gcc/pic32mx/4.8.3/../../../../pic32mx/lib/libc.a(strncpy.o)
 .comment       0x0000000000000000       0x3d /opt/microchip/xc32/v2.40/bin/bin/../../lib/gcc/pic32mx/4.8.3/../../../../pic32mx/lib/libc.a(printf_cdfFnopuxX.eo)
 .comment       0x0000000000000000       0x3d /opt/microchip/xc32/v2.40/bin/bin/../../lib/gcc/pic32mx/4.8.3/../../../../pic32mx/lib/libc.a(snprintf_cdnopuxX.eo)
 .comment       0x0000000000000000       0x3d /opt/microchip/xc32/v2.40/bin/bin/../../lib/gcc/pic32mx/4.8.3/../../../../pic32mx/lib/libc.a(sprintf_cdnopsuxX.eo)
 .comment       0x0000000000000000       0x3d /opt/microchip/xc32/v2.40/bin/bin/../../lib/gcc/pic32mx/4.8.3/../../../../pic32mx/lib/libc.a(sscanf_cdnopuxX.eo)
 .comment       0x0000000000000000       0x3d /opt/microchip/xc32/v2.40/bin/bin/../../lib/gcc/pic32mx/4.8.3/../../../../pic32mx/lib/libc.a(vsnprintf_cdnopuxX.eo)
 .comment       0x0000000000000000       0x3d /opt/microchip/xc32/v2.40/bin/bin/../../lib/gcc/pic32mx/4.8.3/../../../../pic32mx/lib/libc.a(_iob.o)
 .comment       0x0000000000000000       0x3d /opt/microchip/xc32/v2.40/bin/bin/../../lib/gcc/pic32mx/4.8.3/../../../../pic32mx/lib/libc.a(_fputc_simple.o)
 .comment       0x0000000000000000       0x3d /opt/microchip/xc32/v2.40/bin/bin/../../lib/gcc/pic32mx/4.8.3/../../../../pic32mx/lib/libc.a(doscan_cdnopuxX.eo)
 .comment       0x0000000000000000       0x3d /opt/microchip/xc32/v2.40/bin/bin/../../lib/gcc/pic32mx/4.8.3/../../../../pic32mx/lib/libc.a(_flsbuf_simple.o)
 .comment       0x0000000000000000       0x3d /opt/microchip/xc32/v2.40/bin/bin/../../lib/gcc/pic32mx/4.8.3/../../../../pic32mx/lib/libc.a(fgetc.o)
 .comment       0x0000000000000128       0x4f /opt/microchip/xc32/v2.40/bin/bin/../../lib/gcc/pic32mx/4.8.3/../../../../pic32mx/lib/libc.a(ctypef.o)
                                         0x8c (size before relaxing)
 .comment       0x0000000000000000       0x3d /opt/microchip/xc32/v2.40/bin/bin/../../lib/gcc/pic32mx/4.8.3/../../../../pic32mx/lib/libc.a(ldpowers.o)
 .comment       0x0000000000000000       0x3d /opt/microchip/xc32/v2.40/bin/bin/../../lib/gcc/pic32mx/4.8.3/../../../../pic32mx/lib/libc.a(ungetc.o)
 .comment       0x0000000000000000       0x3d /opt/microchip/xc32/v2.40/bin/bin/../../lib/gcc/pic32mx/4.8.3/../../../../pic32mx/lib/libc.a(filbuf.o)
 .comment       0x0000000000000000       0x3d /opt/microchip/xc32/v2.40/bin/bin/../../lib/gcc/pic32mx/4.8.3/../../../../pic32mx/lib/libc.a(fflush.o)
 .comment       0x0000000000000000       0x3d /opt/microchip/xc32/v2.40/bin/bin/../../lib/gcc/pic32mx/4.8.3/../../../../pic32mx/lib/libc.a(doprnt_cdfFnopsuxX.eo)
 .comment       0x0000000000000177       0x9f /opt/microchip/xc32/v2.40/bin/bin/../../lib/gcc/pic32mx/4.8.3/../../../../pic32mx/lib/libe.a(_fixunsdfdi.o)
                                         0xdc (size before relaxing)
 .comment       0x0000000000000216       0x50 /opt/microchip/xc32/v2.40/bin/bin/../../lib/gcc/pic32mx/4.8.3/../../../../pic32mx/lib/libe.a(_orderdf2.o)
                                         0xdb (size before relaxing)
 .comment       0x0000000000000266       0x50 /opt/microchip/xc32/v2.40/bin/bin/../../lib/gcc/pic32mx/4.8.3/../../../../pic32mx/lib/libe.a(_fixdfdi.o)
                                         0xdb (size before relaxing)
 .comment       0x0000000000000000       0x3d /opt/microchip/xc32/v2.40/bin/bin/../../lib/gcc/pic32mx/4.8.3/libgcc.a(_floatundidf.o)
 .comment       0x0000000000000000       0x3d /opt/microchip/xc32/v2.40/bin/bin/../../lib/gcc/pic32mx/4.8.3/libgcc.a(_umoddi3.o)
 .comment       0x0000000000000000       0x3d /opt/microchip/xc32/v2.40/bin/bin/../../lib/gcc/pic32mx/4.8.3/libgcc.a(floatunsidf.o)
 .comment       0x0000000000000000       0x3d /opt/microchip/xc32/v2.40/bin/bin/../../lib/gcc/pic32mx/4.8.3/../../../../pic32mx/lib/libpic32.a(read.o)
 .comment       0x0000000000000000       0x3d /opt/microchip/xc32/v2.40/bin/bin/../../lib/gcc/pic32mx/4.8.3/../../../../pic32mx/lib/libpic32.a(write.o)
 .comment       0x0000000000000000       0x3d /opt/microchip/xc32/v2.40/bin/bin/../../lib/gcc/pic32mx/4.8.3/../../../../pic32mx/lib/libpic32.a(_mon_putc.o)

.debug
 *(.debug)

.line
 *(.line)

.debug_srcinfo
 *(.debug_srcinfo)

.debug_sfnames
 *(.debug_sfnames)

.debug_aranges  0x0000000000000000      0xd30
 *(.debug_aranges)
 .debug_aranges
                0x0000000000000000       0x20 build/default/debug/config/config.o
 .debug_aranges
                0x0000000000000020       0x20 build/default/debug/delay/delay.o
 .debug_aranges
                0x0000000000000040       0x20 build/default/debug/fatfs/ff.o
 .debug_aranges
                0x0000000000000060       0x18 build/default/debug/fatfs/ffsystem.o
 .debug_aranges
                0x0000000000000078       0x20 build/default/debug/fatfs/ffunicode.o
 .debug_aranges
                0x0000000000000098       0x20 build/default/debug/fatfs/SPIFlash.o
 .debug_aranges
                0x00000000000000b8       0x20 build/default/debug/fatfs/diskio.o
 .debug_aranges
                0x00000000000000d8       0x18 build/default/debug/net/Announce.o
 .debug_aranges
                0x00000000000000f0       0x18 build/default/debug/net/ARCFOUR.o
 .debug_aranges
                0x0000000000000108       0x20 build/default/debug/net/ARP.o
 .debug_aranges
                0x0000000000000128       0x18 build/default/debug/net/AutoIP.o
 .debug_aranges
                0x0000000000000140       0x18 build/default/debug/net/BerkeleyAPI.o
 .debug_aranges
                0x0000000000000158       0x18 build/default/debug/net/BigInt.o
 .debug_aranges
                0x0000000000000170       0x20 build/default/debug/CustomHTTPApp.o
 .debug_aranges
                0x0000000000000190       0x20 build/default/debug/net/DHCP.o
 .debug_aranges
                0x00000000000001b0       0x20 build/default/debug/net/DNS.o
 .debug_aranges
                0x00000000000001d0       0x20 build/default/debug/net/ENC28J60.o
 .debug_aranges
                0x00000000000001f0       0x18 build/default/debug/net/FTP.o
 .debug_aranges
                0x0000000000000208       0x20 build/default/debug/net/GenericTCPServer.o
 .debug_aranges
                0x0000000000000228       0x18 build/default/debug/net/Hashes.o
 .debug_aranges
                0x0000000000000240       0x20 build/default/debug/net/Helpers.o
 .debug_aranges
                0x0000000000000260       0x20 build/default/debug/net/HTTP2.o
 .debug_aranges
                0x0000000000000280       0x20 build/default/debug/net/ICMP.o
 .debug_aranges
                0x00000000000002a0       0x20 build/default/debug/net/IP.o
 .debug_aranges
                0x00000000000002c0       0x20 build/default/debug/net/MPFS2.o
 .debug_aranges
                0x00000000000002e0       0x18 build/default/debug/MPFSImg2.o
 .debug_aranges
                0x00000000000002f8       0x18 build/default/debug/net/NBNS.o
 .debug_aranges
                0x0000000000000310       0x18 build/default/debug/net/Random.o
 .debug_aranges
                0x0000000000000328       0x18 build/default/debug/net/Reboot.o
 .debug_aranges
                0x0000000000000340       0x18 build/default/debug/net/RSA.o
 .debug_aranges
                0x0000000000000358       0x18 build/default/debug/net/SMTP.o
 .debug_aranges
                0x0000000000000370       0x20 build/default/debug/net/SNTP.o
 .debug_aranges
                0x0000000000000390       0x18 build/default/debug/net/SSL.o
 .debug_aranges
                0x00000000000003a8       0x20 build/default/debug/net/StackTsk.o
 .debug_aranges
                0x00000000000003c8       0x20 build/default/debug/net/TCP.o
 .debug_aranges
                0x00000000000003e8       0x18 build/default/debug/net/Telnet.o
 .debug_aranges
                0x0000000000000400       0x20 build/default/debug/net/Tick.o
 .debug_aranges
                0x0000000000000420       0x20 build/default/debug/net/UDP.o
 .debug_aranges
                0x0000000000000440       0x18 build/default/debug/net/ZeroconfHelper.o
 .debug_aranges
                0x0000000000000458       0x18 build/default/debug/net/ZeroconfLinkLocal.o
 .debug_aranges
                0x0000000000000470       0x18 build/default/debug/net/ZeroconfMulticastDNS.o
 .debug_aranges
                0x0000000000000488       0x20 build/default/debug/nvram/nvram.o
 .debug_aranges
                0x00000000000004a8       0x20 build/default/debug/time/time.o
 .debug_aranges
                0x00000000000004c8       0x20 build/default/debug/uart/uart.o
 .debug_aranges
                0x00000000000004e8       0x20 build/default/debug/uart/debug_uart.o
 .debug_aranges
                0x0000000000000508       0x20 build/default/debug/usb/event.o
 .debug_aranges
                0x0000000000000528       0x18 build/default/debug/usb/usb_descriptors.o
 .debug_aranges
                0x0000000000000540       0x20 build/default/debug/usb/usb_device.o
 .debug_aranges
                0x0000000000000560       0x20 build/default/debug/usb/usb_function_cdc.o
 .debug_aranges
                0x0000000000000580       0x20 build/default/debug/main.o
 .debug_aranges
                0x00000000000005a0       0x20 build/default/debug/common.o
 .debug_aranges
                0x00000000000005c0       0x40 /tmp/cc1HBx2X.o
 .debug_aranges
                0x0000000000000600       0x20 /opt/microchip/xc32/v2.40/bin/bin/../../lib/gcc/pic32mx/4.8.3/../../../../pic32mx/lib/libmchp_peripheral.a(read_core_timer_lib.o)
 .debug_aranges
                0x0000000000000620       0x20 /opt/microchip/xc32/v2.40/bin/bin/../../lib/gcc/pic32mx/4.8.3/../../../../pic32mx/lib/libmchp_peripheral_32MX270F256B.a(soft_reset_lib.o)
 .debug_aranges
                0x0000000000000640       0x20 /opt/microchip/xc32/v2.40/bin/bin/../../lib/gcc/pic32mx/4.8.3/../../../../pic32mx/lib/libmchp_peripheral_32MX270F256B.a(int_enable_interrupts_lib.o)
 .debug_aranges
                0x0000000000000660       0x20 /opt/microchip/xc32/v2.40/bin/bin/../../lib/gcc/pic32mx/4.8.3/../../../../pic32mx/lib/libmchp_peripheral_32MX270F256B.a(int_disable_interrupts_lib.o)
 .debug_aranges
                0x0000000000000680       0x20 /opt/microchip/xc32/v2.40/bin/bin/../../lib/gcc/pic32mx/4.8.3/../../../../pic32mx/lib/libmchp_peripheral_32MX270F256B.a(int_restore_interrupts_lib.o)
 .debug_aranges
                0x00000000000006a0       0x20 /opt/microchip/xc32/v2.40/bin/bin/../../lib/gcc/pic32mx/4.8.3/../../../../pic32mx/lib/libmchp_peripheral_32MX270F256B.a(int_enable_mv_int_lib.o)
 .debug_aranges
                0x00000000000006c0       0x60 /opt/microchip/xc32/v2.40/bin/bin/../../lib/gcc/pic32mx/4.8.3/../../../../pic32mx/lib/libmchp_peripheral_32MX270F256B.a(int_tbl_lib.o)
 .debug_aranges
                0x0000000000000720       0x20 /opt/microchip/xc32/v2.40/bin/bin/../../lib/gcc/pic32mx/4.8.3/../../../../pic32mx/lib/libmchp_peripheral_32MX270F256B.a(rtcc_set_time_date_lib.o)
 .debug_aranges
                0x0000000000000740       0x20 /opt/microchip/xc32/v2.40/bin/bin/../../lib/gcc/pic32mx/4.8.3/../../../../pic32mx/lib/libmchp_peripheral_32MX270F256B.a(nvm_erase_page_lib.o)
 .debug_aranges
                0x0000000000000760       0x20 /opt/microchip/xc32/v2.40/bin/bin/../../lib/gcc/pic32mx/4.8.3/../../../../pic32mx/lib/libmchp_peripheral_32MX270F256B.a(nvm_operation_lib.o)
 .debug_aranges
                0x0000000000000780       0x20 /opt/microchip/xc32/v2.40/bin/bin/../../lib/gcc/pic32mx/4.8.3/../../../../pic32mx/lib/libmchp_peripheral_32MX270F256B.a(nvm_write_word_lib.o)
 .debug_aranges
                0x00000000000007a0       0x20 /opt/microchip/xc32/v2.40/bin/bin/../../lib/gcc/pic32mx/4.8.3/../../../../pic32mx/lib/libmchp_peripheral_32MX270F256B.a(_rtcc_set_time_and_date_lib.o)
 .debug_aranges
                0x00000000000007c0       0x28 /opt/microchip/xc32/v2.40/bin/bin/../../lib/gcc/pic32mx/4.8.3/../../../../pic32mx/lib/libmchp_peripheral_32MX270F256B.a(_rtcc_wait_clock_off_lib.o)
 .debug_aranges
                0x00000000000007e8       0x20 /opt/microchip/xc32/v2.40/bin/bin/../../lib/gcc/pic32mx/4.8.3/libgcc.a(_udivdi3.o)
 .debug_aranges
                0x0000000000000808       0x20 /opt/microchip/xc32/v2.40/bin/bin/../../lib/gcc/pic32mx/4.8.3/libgcc.a(floatunsisf.o)
 .debug_aranges
                0x0000000000000828       0x20 /opt/microchip/xc32/v2.40/bin/bin/../../lib/gcc/pic32mx/4.8.3/../../../../pic32mx/lib/libpic32.a(default-bootstrap-exception-handler.o)
 .debug_aranges
                0x0000000000000848       0x20 /opt/microchip/xc32/v2.40/bin/bin/../../lib/gcc/pic32mx/4.8.3/../../../../pic32mx/lib/libpic32.a(default-on-reset.o)
 .debug_aranges
                0x0000000000000868       0x20 /opt/microchip/xc32/v2.40/bin/bin/../../lib/gcc/pic32mx/4.8.3/../../../../pic32mx/lib/libpic32.a(default-on-bootstrap.o)
 .debug_aranges
                0x0000000000000888       0x20 /opt/microchip/xc32/v2.40/bin/bin/../../lib/gcc/pic32mx/4.8.3/../../../../pic32mx/lib/libpic32.a(defaultinterrupt.o)
 .debug_aranges
                0x00000000000008a8       0x20 /opt/microchip/xc32/v2.40/bin/bin/../../lib/gcc/pic32mx/4.8.3/../../../../pic32mx/lib/libc.a(atoi.o)
 .debug_aranges
                0x00000000000008c8       0x20 /opt/microchip/xc32/v2.40/bin/bin/../../lib/gcc/pic32mx/4.8.3/../../../../pic32mx/lib/libc.a(atol.o)
 .debug_aranges
                0x00000000000008e8       0x40 /opt/microchip/xc32/v2.40/bin/bin/../../lib/gcc/pic32mx/4.8.3/../../../../pic32mx/lib/libc.a(ctime.o)
 .debug_aranges
                0x0000000000000928       0x20 /opt/microchip/xc32/v2.40/bin/bin/../../lib/gcc/pic32mx/4.8.3/../../../../pic32mx/lib/libc.a(mktime.o)
 .debug_aranges
                0x0000000000000948       0x28 /opt/microchip/xc32/v2.40/bin/bin/../../lib/gcc/pic32mx/4.8.3/../../../../pic32mx/lib/libc.a(puts.o)
 .debug_aranges
                0x0000000000000970       0x28 /opt/microchip/xc32/v2.40/bin/bin/../../lib/gcc/pic32mx/4.8.3/../../../../pic32mx/lib/libc.a(rand.o)
 .debug_aranges
                0x0000000000000998       0x20 /opt/microchip/xc32/v2.40/bin/bin/../../lib/gcc/pic32mx/4.8.3/../../../../pic32mx/lib/libc.a(strncpy.o)
 .debug_aranges
                0x00000000000009b8       0x20 /opt/microchip/xc32/v2.40/bin/bin/../../lib/gcc/pic32mx/4.8.3/../../../../pic32mx/lib/libc.a(printf_cdfFnopuxX.eo)
 .debug_aranges
                0x00000000000009d8       0x20 /opt/microchip/xc32/v2.40/bin/bin/../../lib/gcc/pic32mx/4.8.3/../../../../pic32mx/lib/libc.a(snprintf_cdnopuxX.eo)
 .debug_aranges
                0x00000000000009f8       0x20 /opt/microchip/xc32/v2.40/bin/bin/../../lib/gcc/pic32mx/4.8.3/../../../../pic32mx/lib/libc.a(sprintf_cdnopsuxX.eo)
 .debug_aranges
                0x0000000000000a18       0x20 /opt/microchip/xc32/v2.40/bin/bin/../../lib/gcc/pic32mx/4.8.3/../../../../pic32mx/lib/libc.a(sscanf_cdnopuxX.eo)
 .debug_aranges
                0x0000000000000a38       0x20 /opt/microchip/xc32/v2.40/bin/bin/../../lib/gcc/pic32mx/4.8.3/../../../../pic32mx/lib/libc.a(vsnprintf_cdnopuxX.eo)
 .debug_aranges
                0x0000000000000a58       0x20 /opt/microchip/xc32/v2.40/bin/bin/../../lib/gcc/pic32mx/4.8.3/../../../../pic32mx/lib/libc.a(_fputc_simple.o)
 .debug_aranges
                0x0000000000000a78       0x30 /opt/microchip/xc32/v2.40/bin/bin/../../lib/gcc/pic32mx/4.8.3/../../../../pic32mx/lib/libc.a(doscan_cdnopuxX.eo)
 .debug_aranges
                0x0000000000000aa8       0x20 /opt/microchip/xc32/v2.40/bin/bin/../../lib/gcc/pic32mx/4.8.3/../../../../pic32mx/lib/libc.a(_flsbuf_simple.o)
 .debug_aranges
                0x0000000000000ac8       0x20 /opt/microchip/xc32/v2.40/bin/bin/../../lib/gcc/pic32mx/4.8.3/../../../../pic32mx/lib/libc.a(fgetc.o)
 .debug_aranges
                0x0000000000000ae8       0xa0 /opt/microchip/xc32/v2.40/bin/bin/../../lib/gcc/pic32mx/4.8.3/../../../../pic32mx/lib/libc.a(ctypef.o)
 .debug_aranges
                0x0000000000000b88       0x20 /opt/microchip/xc32/v2.40/bin/bin/../../lib/gcc/pic32mx/4.8.3/../../../../pic32mx/lib/libc.a(ungetc.o)
 .debug_aranges
                0x0000000000000ba8       0x20 /opt/microchip/xc32/v2.40/bin/bin/../../lib/gcc/pic32mx/4.8.3/../../../../pic32mx/lib/libc.a(filbuf.o)
 .debug_aranges
                0x0000000000000bc8       0x20 /opt/microchip/xc32/v2.40/bin/bin/../../lib/gcc/pic32mx/4.8.3/../../../../pic32mx/lib/libc.a(fflush.o)
 .debug_aranges
                0x0000000000000be8       0x28 /opt/microchip/xc32/v2.40/bin/bin/../../lib/gcc/pic32mx/4.8.3/../../../../pic32mx/lib/libc.a(doprnt_cdfFnopsuxX.eo)
 .debug_aranges
                0x0000000000000c10       0x20 /opt/microchip/xc32/v2.40/bin/bin/../../lib/gcc/pic32mx/4.8.3/../../../../pic32mx/lib/libe.a(_fixunsdfdi.o)
 .debug_aranges
                0x0000000000000c30       0x20 /opt/microchip/xc32/v2.40/bin/bin/../../lib/gcc/pic32mx/4.8.3/../../../../pic32mx/lib/libe.a(_orderdf2.o)
 .debug_aranges
                0x0000000000000c50       0x20 /opt/microchip/xc32/v2.40/bin/bin/../../lib/gcc/pic32mx/4.8.3/../../../../pic32mx/lib/libe.a(_fixdfdi.o)
 .debug_aranges
                0x0000000000000c70       0x20 /opt/microchip/xc32/v2.40/bin/bin/../../lib/gcc/pic32mx/4.8.3/libgcc.a(_floatundidf.o)
 .debug_aranges
                0x0000000000000c90       0x20 /opt/microchip/xc32/v2.40/bin/bin/../../lib/gcc/pic32mx/4.8.3/libgcc.a(_umoddi3.o)
 .debug_aranges
                0x0000000000000cb0       0x20 /opt/microchip/xc32/v2.40/bin/bin/../../lib/gcc/pic32mx/4.8.3/libgcc.a(floatunsidf.o)
 .debug_aranges
                0x0000000000000cd0       0x20 /opt/microchip/xc32/v2.40/bin/bin/../../lib/gcc/pic32mx/4.8.3/../../../../pic32mx/lib/libpic32.a(read.o)
 .debug_aranges
                0x0000000000000cf0       0x20 /opt/microchip/xc32/v2.40/bin/bin/../../lib/gcc/pic32mx/4.8.3/../../../../pic32mx/lib/libpic32.a(write.o)
 .debug_aranges
                0x0000000000000d10       0x20 /opt/microchip/xc32/v2.40/bin/bin/../../lib/gcc/pic32mx/4.8.3/../../../../pic32mx/lib/libpic32.a(_mon_putc.o)

.debug_pubnames
 *(.debug_pubnames)

.debug_info     0x0000000000000000    0x5431c
 *(.debug_info .gnu.linkonce.wi.*)
 .debug_info    0x0000000000000000     0x169b build/default/debug/config/config.o
 .debug_info    0x000000000000169b      0xf3e build/default/debug/delay/delay.o
 .debug_info    0x00000000000025d9     0x4ec6 build/default/debug/fatfs/ff.o
 .debug_info    0x000000000000749f      0x116 build/default/debug/fatfs/ffsystem.o
 .debug_info    0x00000000000075b5      0x318 build/default/debug/fatfs/ffunicode.o
 .debug_info    0x00000000000078cd     0x1b4a build/default/debug/fatfs/SPIFlash.o
 .debug_info    0x0000000000009417     0x14a3 build/default/debug/fatfs/diskio.o
 .debug_info    0x000000000000a8ba      0xd6d build/default/debug/net/Announce.o
 .debug_info    0x000000000000b627      0xd6c build/default/debug/net/ARCFOUR.o
 .debug_info    0x000000000000c393     0x19b5 build/default/debug/net/ARP.o
 .debug_info    0x000000000000dd48      0xd6b build/default/debug/net/AutoIP.o
 .debug_info    0x000000000000eab3      0xd70 build/default/debug/net/BerkeleyAPI.o
 .debug_info    0x000000000000f823      0xd6b build/default/debug/net/BigInt.o
 .debug_info    0x000000000001058e     0x37da build/default/debug/CustomHTTPApp.o
 .debug_info    0x0000000000013d68     0x2868 build/default/debug/net/DHCP.o
 .debug_info    0x00000000000165d0     0x23df build/default/debug/net/DNS.o
 .debug_info    0x00000000000189af     0x4d1d build/default/debug/net/ENC28J60.o
 .debug_info    0x000000000001d6cc      0xd68 build/default/debug/net/FTP.o
 .debug_info    0x000000000001e434     0x1082 build/default/debug/net/GenericTCPServer.o
 .debug_info    0x000000000001f4b6      0xd6b build/default/debug/net/Hashes.o
 .debug_info    0x0000000000020221     0x1ef6 build/default/debug/net/Helpers.o
 .debug_info    0x0000000000022117     0x3604 build/default/debug/net/HTTP2.o
 .debug_info    0x000000000002571b     0x1586 build/default/debug/net/ICMP.o
 .debug_info    0x0000000000026ca1     0x1944 build/default/debug/net/IP.o
 .debug_info    0x00000000000285e5     0x1796 build/default/debug/net/MPFS2.o
 .debug_info    0x0000000000029d7b      0xda6 build/default/debug/MPFSImg2.o
 .debug_info    0x000000000002ab21      0xd69 build/default/debug/net/NBNS.o
 .debug_info    0x000000000002b88a      0xd6b build/default/debug/net/Random.o
 .debug_info    0x000000000002c5f5      0xd6b build/default/debug/net/Reboot.o
 .debug_info    0x000000000002d360      0xd68 build/default/debug/net/RSA.o
 .debug_info    0x000000000002e0c8      0xd69 build/default/debug/net/SMTP.o
 .debug_info    0x000000000002ee31     0x1d1e build/default/debug/net/SNTP.o
 .debug_info    0x0000000000030b4f      0xd68 build/default/debug/net/SSL.o
 .debug_info    0x00000000000318b7     0x1a24 build/default/debug/net/StackTsk.o
 .debug_info    0x00000000000332db     0x407a build/default/debug/net/TCP.o
 .debug_info    0x0000000000037355      0xd6b build/default/debug/net/Telnet.o
 .debug_info    0x00000000000380c0     0x153a build/default/debug/net/Tick.o
 .debug_info    0x00000000000395fa     0x2440 build/default/debug/net/UDP.o
 .debug_info    0x000000000003ba3a      0xd73 build/default/debug/net/ZeroconfHelper.o
 .debug_info    0x000000000003c7ad      0xd76 build/default/debug/net/ZeroconfLinkLocal.o
 .debug_info    0x000000000003d523      0xd79 build/default/debug/net/ZeroconfMulticastDNS.o
 .debug_info    0x000000000003e29c      0xefc build/default/debug/nvram/nvram.o
 .debug_info    0x000000000003f198     0x12d3 build/default/debug/time/time.o
 .debug_info    0x000000000004046b     0x1eca build/default/debug/uart/uart.o
 .debug_info    0x0000000000042335     0x1e96 build/default/debug/uart/debug_uart.o
 .debug_info    0x00000000000441cb     0x12c2 build/default/debug/usb/event.o
 .debug_info    0x000000000004548d     0x13c9 build/default/debug/usb/usb_descriptors.o
 .debug_info    0x0000000000046856     0x383d build/default/debug/usb/usb_device.o
 .debug_info    0x000000000004a093     0x26a2 build/default/debug/usb/usb_function_cdc.o
 .debug_info    0x000000000004c735     0x3054 build/default/debug/main.o
 .debug_info    0x000000000004f789     0x11f6 build/default/debug/common.o
 .debug_info    0x000000000005097f       0xac /tmp/cc1HBx2X.o
 .debug_info    0x0000000000050a2b       0xa8 /opt/microchip/xc32/v2.40/bin/bin/../../lib/gcc/pic32mx/4.8.3/../../../../pic32mx/lib/libmchp_peripheral.a(read_core_timer_lib.o)
 .debug_info    0x0000000000050ad3       0xb0 /opt/microchip/xc32/v2.40/bin/bin/../../lib/gcc/pic32mx/4.8.3/../../../../pic32mx/lib/libmchp_peripheral_32MX270F256B.a(soft_reset_lib.o)
 .debug_info    0x0000000000050b83       0xb2 /opt/microchip/xc32/v2.40/bin/bin/../../lib/gcc/pic32mx/4.8.3/../../../../pic32mx/lib/libmchp_peripheral_32MX270F256B.a(int_enable_interrupts_lib.o)
 .debug_info    0x0000000000050c35       0xb4 /opt/microchip/xc32/v2.40/bin/bin/../../lib/gcc/pic32mx/4.8.3/../../../../pic32mx/lib/libmchp_peripheral_32MX270F256B.a(int_disable_interrupts_lib.o)
 .debug_info    0x0000000000050ce9       0xb4 /opt/microchip/xc32/v2.40/bin/bin/../../lib/gcc/pic32mx/4.8.3/../../../../pic32mx/lib/libmchp_peripheral_32MX270F256B.a(int_restore_interrupts_lib.o)
 .debug_info    0x0000000000050d9d       0xba /opt/microchip/xc32/v2.40/bin/bin/../../lib/gcc/pic32mx/4.8.3/../../../../pic32mx/lib/libmchp_peripheral_32MX270F256B.a(int_enable_mv_int_lib.o)
 .debug_info    0x0000000000050e57      0x19c /opt/microchip/xc32/v2.40/bin/bin/../../lib/gcc/pic32mx/4.8.3/../../../../pic32mx/lib/libmchp_peripheral_32MX270F256B.a(int_tbl_lib.o)
 .debug_info    0x0000000000050ff3       0xac /opt/microchip/xc32/v2.40/bin/bin/../../lib/gcc/pic32mx/4.8.3/../../../../pic32mx/lib/libmchp_peripheral_32MX270F256B.a(rtcc_set_time_date_lib.o)
 .debug_info    0x000000000005109f       0xa4 /opt/microchip/xc32/v2.40/bin/bin/../../lib/gcc/pic32mx/4.8.3/../../../../pic32mx/lib/libmchp_peripheral_32MX270F256B.a(nvm_erase_page_lib.o)
 .debug_info    0x0000000000051143       0xc5 /opt/microchip/xc32/v2.40/bin/bin/../../lib/gcc/pic32mx/4.8.3/../../../../pic32mx/lib/libmchp_peripheral_32MX270F256B.a(nvm_operation_lib.o)
 .debug_info    0x0000000000051208       0xa4 /opt/microchip/xc32/v2.40/bin/bin/../../lib/gcc/pic32mx/4.8.3/../../../../pic32mx/lib/libmchp_peripheral_32MX270F256B.a(nvm_write_word_lib.o)
 .debug_info    0x00000000000512ac      0x10d /opt/microchip/xc32/v2.40/bin/bin/../../lib/gcc/pic32mx/4.8.3/../../../../pic32mx/lib/libmchp_peripheral_32MX270F256B.a(_rtcc_set_time_and_date_lib.o)
 .debug_info    0x00000000000513b9       0xe6 /opt/microchip/xc32/v2.40/bin/bin/../../lib/gcc/pic32mx/4.8.3/../../../../pic32mx/lib/libmchp_peripheral_32MX270F256B.a(_rtcc_wait_clock_off_lib.o)
 .debug_info    0x000000000005149f      0x74b /opt/microchip/xc32/v2.40/bin/bin/../../lib/gcc/pic32mx/4.8.3/libgcc.a(_udivdi3.o)
 .debug_info    0x0000000000051bea      0x129 /opt/microchip/xc32/v2.40/bin/bin/../../lib/gcc/pic32mx/4.8.3/libgcc.a(floatunsisf.o)
 .debug_info    0x0000000000051d13       0xf4 /opt/microchip/xc32/v2.40/bin/bin/../../lib/gcc/pic32mx/4.8.3/../../../../pic32mx/lib/libpic32.a(default-bootstrap-exception-handler.o)
 .debug_info    0x0000000000051e07       0xcd /opt/microchip/xc32/v2.40/bin/bin/../../lib/gcc/pic32mx/4.8.3/../../../../pic32mx/lib/libpic32.a(default-on-reset.o)
 .debug_info    0x0000000000051ed4       0xd5 /opt/microchip/xc32/v2.40/bin/bin/../../lib/gcc/pic32mx/4.8.3/../../../../pic32mx/lib/libpic32.a(default-on-bootstrap.o)
 .debug_info    0x0000000000051fa9       0xe7 /opt/microchip/xc32/v2.40/bin/bin/../../lib/gcc/pic32mx/4.8.3/../../../../pic32mx/lib/libpic32.a(defaultinterrupt.o)
 .debug_info    0x0000000000052090       0xc0 /opt/microchip/xc32/v2.40/bin/bin/../../lib/gcc/pic32mx/4.8.3/../../../../pic32mx/lib/libc.a(atoi.o)
 .debug_info    0x0000000000052150       0xc0 /opt/microchip/xc32/v2.40/bin/bin/../../lib/gcc/pic32mx/4.8.3/../../../../pic32mx/lib/libc.a(atol.o)
 .debug_info    0x0000000000052210      0x132 /opt/microchip/xc32/v2.40/bin/bin/../../lib/gcc/pic32mx/4.8.3/../../../../pic32mx/lib/libc.a(ctime.o)
 .debug_info    0x0000000000052342      0x106 /opt/microchip/xc32/v2.40/bin/bin/../../lib/gcc/pic32mx/4.8.3/../../../../pic32mx/lib/libc.a(mktime.o)
 .debug_info    0x0000000000052448       0xd5 /opt/microchip/xc32/v2.40/bin/bin/../../lib/gcc/pic32mx/4.8.3/../../../../pic32mx/lib/libc.a(puts.o)
 .debug_info    0x000000000005251d       0xdb /opt/microchip/xc32/v2.40/bin/bin/../../lib/gcc/pic32mx/4.8.3/../../../../pic32mx/lib/libc.a(rand.o)
 .debug_info    0x00000000000525f8       0xc6 /opt/microchip/xc32/v2.40/bin/bin/../../lib/gcc/pic32mx/4.8.3/../../../../pic32mx/lib/libc.a(strncpy.o)
 .debug_info    0x00000000000526be       0xd0 /opt/microchip/xc32/v2.40/bin/bin/../../lib/gcc/pic32mx/4.8.3/../../../../pic32mx/lib/libc.a(printf_cdfFnopuxX.eo)
 .debug_info    0x000000000005278e       0xd2 /opt/microchip/xc32/v2.40/bin/bin/../../lib/gcc/pic32mx/4.8.3/../../../../pic32mx/lib/libc.a(snprintf_cdnopuxX.eo)
 .debug_info    0x0000000000052860       0xd1 /opt/microchip/xc32/v2.40/bin/bin/../../lib/gcc/pic32mx/4.8.3/../../../../pic32mx/lib/libc.a(sprintf_cdnopsuxX.eo)
 .debug_info    0x0000000000052931       0xce /opt/microchip/xc32/v2.40/bin/bin/../../lib/gcc/pic32mx/4.8.3/../../../../pic32mx/lib/libc.a(sscanf_cdnopuxX.eo)
 .debug_info    0x00000000000529ff       0xd4 /opt/microchip/xc32/v2.40/bin/bin/../../lib/gcc/pic32mx/4.8.3/../../../../pic32mx/lib/libc.a(vsnprintf_cdnopuxX.eo)
 .debug_info    0x0000000000052ad3       0xc2 /opt/microchip/xc32/v2.40/bin/bin/../../lib/gcc/pic32mx/4.8.3/../../../../pic32mx/lib/libc.a(_fputc_simple.o)
 .debug_info    0x0000000000052b95       0xf8 /opt/microchip/xc32/v2.40/bin/bin/../../lib/gcc/pic32mx/4.8.3/../../../../pic32mx/lib/libc.a(doscan_cdnopuxX.eo)
 .debug_info    0x0000000000052c8d       0xc5 /opt/microchip/xc32/v2.40/bin/bin/../../lib/gcc/pic32mx/4.8.3/../../../../pic32mx/lib/libc.a(_flsbuf_simple.o)
 .debug_info    0x0000000000052d52       0xc2 /opt/microchip/xc32/v2.40/bin/bin/../../lib/gcc/pic32mx/4.8.3/../../../../pic32mx/lib/libc.a(fgetc.o)
 .debug_info    0x0000000000052e14      0x238 /opt/microchip/xc32/v2.40/bin/bin/../../lib/gcc/pic32mx/4.8.3/../../../../pic32mx/lib/libc.a(ctypef.o)
 .debug_info    0x000000000005304c       0xc4 /opt/microchip/xc32/v2.40/bin/bin/../../lib/gcc/pic32mx/4.8.3/../../../../pic32mx/lib/libc.a(ungetc.o)
 .debug_info    0x0000000000053110       0xc5 /opt/microchip/xc32/v2.40/bin/bin/../../lib/gcc/pic32mx/4.8.3/../../../../pic32mx/lib/libc.a(filbuf.o)
 .debug_info    0x00000000000531d5       0xc4 /opt/microchip/xc32/v2.40/bin/bin/../../lib/gcc/pic32mx/4.8.3/../../../../pic32mx/lib/libc.a(fflush.o)
 .debug_info    0x0000000000053299       0xfb /opt/microchip/xc32/v2.40/bin/bin/../../lib/gcc/pic32mx/4.8.3/../../../../pic32mx/lib/libc.a(doprnt_cdfFnopsuxX.eo)
 .debug_info    0x0000000000053394       0xce /opt/microchip/xc32/v2.40/bin/bin/../../lib/gcc/pic32mx/4.8.3/../../../../pic32mx/lib/libe.a(_fixunsdfdi.o)
 .debug_info    0x0000000000053462       0xba /opt/microchip/xc32/v2.40/bin/bin/../../lib/gcc/pic32mx/4.8.3/../../../../pic32mx/lib/libe.a(_orderdf2.o)
 .debug_info    0x000000000005351c       0xb9 /opt/microchip/xc32/v2.40/bin/bin/../../lib/gcc/pic32mx/4.8.3/../../../../pic32mx/lib/libe.a(_fixdfdi.o)
 .debug_info    0x00000000000535d5      0x245 /opt/microchip/xc32/v2.40/bin/bin/../../lib/gcc/pic32mx/4.8.3/libgcc.a(_floatundidf.o)
 .debug_info    0x000000000005381a      0x788 /opt/microchip/xc32/v2.40/bin/bin/../../lib/gcc/pic32mx/4.8.3/libgcc.a(_umoddi3.o)
 .debug_info    0x0000000000053fa2      0x137 /opt/microchip/xc32/v2.40/bin/bin/../../lib/gcc/pic32mx/4.8.3/libgcc.a(floatunsidf.o)
 .debug_info    0x00000000000540d9       0xbd /opt/microchip/xc32/v2.40/bin/bin/../../lib/gcc/pic32mx/4.8.3/../../../../pic32mx/lib/libpic32.a(read.o)
 .debug_info    0x0000000000054196       0xbf /opt/microchip/xc32/v2.40/bin/bin/../../lib/gcc/pic32mx/4.8.3/../../../../pic32mx/lib/libpic32.a(write.o)
 .debug_info    0x0000000000054255       0xc7 /opt/microchip/xc32/v2.40/bin/bin/../../lib/gcc/pic32mx/4.8.3/../../../../pic32mx/lib/libpic32.a(_mon_putc.o)

.debug_abbrev   0x0000000000000000     0x784d
 *(.debug_abbrev)
 .debug_abbrev  0x0000000000000000      0x261 build/default/debug/config/config.o
 .debug_abbrev  0x0000000000000261      0x1b4 build/default/debug/delay/delay.o
 .debug_abbrev  0x0000000000000415      0x320 build/default/debug/fatfs/ff.o
 .debug_abbrev  0x0000000000000735       0x1b build/default/debug/fatfs/ffsystem.o
 .debug_abbrev  0x0000000000000750       0xa6 build/default/debug/fatfs/ffunicode.o
 .debug_abbrev  0x00000000000007f6      0x2da build/default/debug/fatfs/SPIFlash.o
 .debug_abbrev  0x0000000000000ad0      0x272 build/default/debug/fatfs/diskio.o
 .debug_abbrev  0x0000000000000d42      0x118 build/default/debug/net/Announce.o
 .debug_abbrev  0x0000000000000e5a      0x118 build/default/debug/net/ARCFOUR.o
 .debug_abbrev  0x0000000000000f72      0x2f9 build/default/debug/net/ARP.o
 .debug_abbrev  0x000000000000126b      0x118 build/default/debug/net/AutoIP.o
 .debug_abbrev  0x0000000000001383      0x118 build/default/debug/net/BerkeleyAPI.o
 .debug_abbrev  0x000000000000149b      0x118 build/default/debug/net/BigInt.o
 .debug_abbrev  0x00000000000015b3      0x38b build/default/debug/CustomHTTPApp.o
 .debug_abbrev  0x000000000000193e      0x374 build/default/debug/net/DHCP.o
 .debug_abbrev  0x0000000000001cb2      0x2e0 build/default/debug/net/DNS.o
 .debug_abbrev  0x0000000000001f92      0x41c build/default/debug/net/ENC28J60.o
 .debug_abbrev  0x00000000000023ae      0x118 build/default/debug/net/FTP.o
 .debug_abbrev  0x00000000000024c6      0x1c6 build/default/debug/net/GenericTCPServer.o
 .debug_abbrev  0x000000000000268c      0x118 build/default/debug/net/Hashes.o
 .debug_abbrev  0x00000000000027a4      0x2e8 build/default/debug/net/Helpers.o
 .debug_abbrev  0x0000000000002a8c      0x3fa build/default/debug/net/HTTP2.o
 .debug_abbrev  0x0000000000002e86      0x21d build/default/debug/net/ICMP.o
 .debug_abbrev  0x00000000000030a3      0x294 build/default/debug/net/IP.o
 .debug_abbrev  0x0000000000003337      0x30d build/default/debug/net/MPFS2.o
 .debug_abbrev  0x0000000000003644      0x132 build/default/debug/MPFSImg2.o
 .debug_abbrev  0x0000000000003776      0x118 build/default/debug/net/NBNS.o
 .debug_abbrev  0x000000000000388e      0x118 build/default/debug/net/Random.o
 .debug_abbrev  0x00000000000039a6      0x118 build/default/debug/net/Reboot.o
 .debug_abbrev  0x0000000000003abe      0x118 build/default/debug/net/RSA.o
 .debug_abbrev  0x0000000000003bd6      0x118 build/default/debug/net/SMTP.o
 .debug_abbrev  0x0000000000003cee      0x274 build/default/debug/net/SNTP.o
 .debug_abbrev  0x0000000000003f62      0x118 build/default/debug/net/SSL.o
 .debug_abbrev  0x000000000000407a      0x2ad build/default/debug/net/StackTsk.o
 .debug_abbrev  0x0000000000004327      0x456 build/default/debug/net/TCP.o
 .debug_abbrev  0x000000000000477d      0x118 build/default/debug/net/Telnet.o
 .debug_abbrev  0x0000000000004895      0x20f build/default/debug/net/Tick.o
 .debug_abbrev  0x0000000000004aa4      0x411 build/default/debug/net/UDP.o
 .debug_abbrev  0x0000000000004eb5      0x118 build/default/debug/net/ZeroconfHelper.o
 .debug_abbrev  0x0000000000004fcd      0x118 build/default/debug/net/ZeroconfLinkLocal.o
 .debug_abbrev  0x00000000000050e5      0x118 build/default/debug/net/ZeroconfMulticastDNS.o
 .debug_abbrev  0x00000000000051fd      0x1e4 build/default/debug/nvram/nvram.o
 .debug_abbrev  0x00000000000053e1      0x283 build/default/debug/time/time.o
 .debug_abbrev  0x0000000000005664      0x21e build/default/debug/uart/uart.o
 .debug_abbrev  0x0000000000005882      0x225 build/default/debug/uart/debug_uart.o
 .debug_abbrev  0x0000000000005aa7      0x20c build/default/debug/usb/event.o
 .debug_abbrev  0x0000000000005cb3      0x186 build/default/debug/usb/usb_descriptors.o
 .debug_abbrev  0x0000000000005e39      0x44b build/default/debug/usb/usb_device.o
 .debug_abbrev  0x0000000000006284      0x2d4 build/default/debug/usb/usb_function_cdc.o
 .debug_abbrev  0x0000000000006558      0x51f build/default/debug/main.o
 .debug_abbrev  0x0000000000006a77      0x220 build/default/debug/common.o
 .debug_abbrev  0x0000000000006c97       0x12 /tmp/cc1HBx2X.o
 .debug_abbrev  0x0000000000006ca9       0x28 /opt/microchip/xc32/v2.40/bin/bin/../../lib/gcc/pic32mx/4.8.3/../../../../pic32mx/lib/libmchp_peripheral.a(read_core_timer_lib.o)
 .debug_abbrev  0x0000000000006cd1       0x37 /opt/microchip/xc32/v2.40/bin/bin/../../lib/gcc/pic32mx/4.8.3/../../../../pic32mx/lib/libmchp_peripheral_32MX270F256B.a(soft_reset_lib.o)
 .debug_abbrev  0x0000000000006d08       0x28 /opt/microchip/xc32/v2.40/bin/bin/../../lib/gcc/pic32mx/4.8.3/../../../../pic32mx/lib/libmchp_peripheral_32MX270F256B.a(int_enable_interrupts_lib.o)
 .debug_abbrev  0x0000000000006d30       0x28 /opt/microchip/xc32/v2.40/bin/bin/../../lib/gcc/pic32mx/4.8.3/../../../../pic32mx/lib/libmchp_peripheral_32MX270F256B.a(int_disable_interrupts_lib.o)
 .debug_abbrev  0x0000000000006d58       0x28 /opt/microchip/xc32/v2.40/bin/bin/../../lib/gcc/pic32mx/4.8.3/../../../../pic32mx/lib/libmchp_peripheral_32MX270F256B.a(int_restore_interrupts_lib.o)
 .debug_abbrev  0x0000000000006d80       0x28 /opt/microchip/xc32/v2.40/bin/bin/../../lib/gcc/pic32mx/4.8.3/../../../../pic32mx/lib/libmchp_peripheral_32MX270F256B.a(int_enable_mv_int_lib.o)
 .debug_abbrev  0x0000000000006da8       0x28 /opt/microchip/xc32/v2.40/bin/bin/../../lib/gcc/pic32mx/4.8.3/../../../../pic32mx/lib/libmchp_peripheral_32MX270F256B.a(int_tbl_lib.o)
 .debug_abbrev  0x0000000000006dd0       0x28 /opt/microchip/xc32/v2.40/bin/bin/../../lib/gcc/pic32mx/4.8.3/../../../../pic32mx/lib/libmchp_peripheral_32MX270F256B.a(rtcc_set_time_date_lib.o)
 .debug_abbrev  0x0000000000006df8       0x28 /opt/microchip/xc32/v2.40/bin/bin/../../lib/gcc/pic32mx/4.8.3/../../../../pic32mx/lib/libmchp_peripheral_32MX270F256B.a(nvm_erase_page_lib.o)
 .debug_abbrev  0x0000000000006e20       0x37 /opt/microchip/xc32/v2.40/bin/bin/../../lib/gcc/pic32mx/4.8.3/../../../../pic32mx/lib/libmchp_peripheral_32MX270F256B.a(nvm_operation_lib.o)
 .debug_abbrev  0x0000000000006e57       0x28 /opt/microchip/xc32/v2.40/bin/bin/../../lib/gcc/pic32mx/4.8.3/../../../../pic32mx/lib/libmchp_peripheral_32MX270F256B.a(nvm_write_word_lib.o)
 .debug_abbrev  0x0000000000006e7f       0x44 /opt/microchip/xc32/v2.40/bin/bin/../../lib/gcc/pic32mx/4.8.3/../../../../pic32mx/lib/libmchp_peripheral_32MX270F256B.a(_rtcc_set_time_and_date_lib.o)
 .debug_abbrev  0x0000000000006ec3       0x4d /opt/microchip/xc32/v2.40/bin/bin/../../lib/gcc/pic32mx/4.8.3/../../../../pic32mx/lib/libmchp_peripheral_32MX270F256B.a(_rtcc_wait_clock_off_lib.o)
 .debug_abbrev  0x0000000000006f10      0x138 /opt/microchip/xc32/v2.40/bin/bin/../../lib/gcc/pic32mx/4.8.3/libgcc.a(_udivdi3.o)
 .debug_abbrev  0x0000000000007048       0x62 /opt/microchip/xc32/v2.40/bin/bin/../../lib/gcc/pic32mx/4.8.3/libgcc.a(floatunsisf.o)
 .debug_abbrev  0x00000000000070aa       0x28 /opt/microchip/xc32/v2.40/bin/bin/../../lib/gcc/pic32mx/4.8.3/../../../../pic32mx/lib/libpic32.a(default-bootstrap-exception-handler.o)
 .debug_abbrev  0x00000000000070d2       0x28 /opt/microchip/xc32/v2.40/bin/bin/../../lib/gcc/pic32mx/4.8.3/../../../../pic32mx/lib/libpic32.a(default-on-reset.o)
 .debug_abbrev  0x00000000000070fa       0x28 /opt/microchip/xc32/v2.40/bin/bin/../../lib/gcc/pic32mx/4.8.3/../../../../pic32mx/lib/libpic32.a(default-on-bootstrap.o)
 .debug_abbrev  0x0000000000007122       0x28 /opt/microchip/xc32/v2.40/bin/bin/../../lib/gcc/pic32mx/4.8.3/../../../../pic32mx/lib/libpic32.a(defaultinterrupt.o)
 .debug_abbrev  0x000000000000714a       0x28 /opt/microchip/xc32/v2.40/bin/bin/../../lib/gcc/pic32mx/4.8.3/../../../../pic32mx/lib/libc.a(atoi.o)
 .debug_abbrev  0x0000000000007172       0x28 /opt/microchip/xc32/v2.40/bin/bin/../../lib/gcc/pic32mx/4.8.3/../../../../pic32mx/lib/libc.a(atol.o)
 .debug_abbrev  0x000000000000719a       0x7a /opt/microchip/xc32/v2.40/bin/bin/../../lib/gcc/pic32mx/4.8.3/../../../../pic32mx/lib/libc.a(ctime.o)
 .debug_abbrev  0x0000000000007214       0x35 /opt/microchip/xc32/v2.40/bin/bin/../../lib/gcc/pic32mx/4.8.3/../../../../pic32mx/lib/libc.a(mktime.o)
 .debug_abbrev  0x0000000000007249       0x28 /opt/microchip/xc32/v2.40/bin/bin/../../lib/gcc/pic32mx/4.8.3/../../../../pic32mx/lib/libc.a(puts.o)
 .debug_abbrev  0x0000000000007271       0x47 /opt/microchip/xc32/v2.40/bin/bin/../../lib/gcc/pic32mx/4.8.3/../../../../pic32mx/lib/libc.a(rand.o)
 .debug_abbrev  0x00000000000072b8       0x28 /opt/microchip/xc32/v2.40/bin/bin/../../lib/gcc/pic32mx/4.8.3/../../../../pic32mx/lib/libc.a(strncpy.o)
 .debug_abbrev  0x00000000000072e0       0x28 /opt/microchip/xc32/v2.40/bin/bin/../../lib/gcc/pic32mx/4.8.3/../../../../pic32mx/lib/libc.a(printf_cdfFnopuxX.eo)
 .debug_abbrev  0x0000000000007308       0x28 /opt/microchip/xc32/v2.40/bin/bin/../../lib/gcc/pic32mx/4.8.3/../../../../pic32mx/lib/libc.a(snprintf_cdnopuxX.eo)
 .debug_abbrev  0x0000000000007330       0x28 /opt/microchip/xc32/v2.40/bin/bin/../../lib/gcc/pic32mx/4.8.3/../../../../pic32mx/lib/libc.a(sprintf_cdnopsuxX.eo)
 .debug_abbrev  0x0000000000007358       0x28 /opt/microchip/xc32/v2.40/bin/bin/../../lib/gcc/pic32mx/4.8.3/../../../../pic32mx/lib/libc.a(sscanf_cdnopuxX.eo)
 .debug_abbrev  0x0000000000007380       0x28 /opt/microchip/xc32/v2.40/bin/bin/../../lib/gcc/pic32mx/4.8.3/../../../../pic32mx/lib/libc.a(vsnprintf_cdnopuxX.eo)
 .debug_abbrev  0x00000000000073a8       0x28 /opt/microchip/xc32/v2.40/bin/bin/../../lib/gcc/pic32mx/4.8.3/../../../../pic32mx/lib/libc.a(_fputc_simple.o)
 .debug_abbrev  0x00000000000073d0       0x3c /opt/microchip/xc32/v2.40/bin/bin/../../lib/gcc/pic32mx/4.8.3/../../../../pic32mx/lib/libc.a(doscan_cdnopuxX.eo)
 .debug_abbrev  0x000000000000740c       0x28 /opt/microchip/xc32/v2.40/bin/bin/../../lib/gcc/pic32mx/4.8.3/../../../../pic32mx/lib/libc.a(_flsbuf_simple.o)
 .debug_abbrev  0x0000000000007434       0x28 /opt/microchip/xc32/v2.40/bin/bin/../../lib/gcc/pic32mx/4.8.3/../../../../pic32mx/lib/libc.a(fgetc.o)
 .debug_abbrev  0x000000000000745c       0x28 /opt/microchip/xc32/v2.40/bin/bin/../../lib/gcc/pic32mx/4.8.3/../../../../pic32mx/lib/libc.a(ctypef.o)
 .debug_abbrev  0x0000000000007484       0x28 /opt/microchip/xc32/v2.40/bin/bin/../../lib/gcc/pic32mx/4.8.3/../../../../pic32mx/lib/libc.a(ungetc.o)
 .debug_abbrev  0x00000000000074ac       0x28 /opt/microchip/xc32/v2.40/bin/bin/../../lib/gcc/pic32mx/4.8.3/../../../../pic32mx/lib/libc.a(filbuf.o)
 .debug_abbrev  0x00000000000074d4       0x28 /opt/microchip/xc32/v2.40/bin/bin/../../lib/gcc/pic32mx/4.8.3/../../../../pic32mx/lib/libc.a(fflush.o)
 .debug_abbrev  0x00000000000074fc       0x45 /opt/microchip/xc32/v2.40/bin/bin/../../lib/gcc/pic32mx/4.8.3/../../../../pic32mx/lib/libc.a(doprnt_cdfFnopsuxX.eo)
 .debug_abbrev  0x0000000000007541       0x37 /opt/microchip/xc32/v2.40/bin/bin/../../lib/gcc/pic32mx/4.8.3/../../../../pic32mx/lib/libe.a(_fixunsdfdi.o)
 .debug_abbrev  0x0000000000007578       0x28 /opt/microchip/xc32/v2.40/bin/bin/../../lib/gcc/pic32mx/4.8.3/../../../../pic32mx/lib/libe.a(_orderdf2.o)
 .debug_abbrev  0x00000000000075a0       0x28 /opt/microchip/xc32/v2.40/bin/bin/../../lib/gcc/pic32mx/4.8.3/../../../../pic32mx/lib/libe.a(_fixdfdi.o)
 .debug_abbrev  0x00000000000075c8       0x64 /opt/microchip/xc32/v2.40/bin/bin/../../lib/gcc/pic32mx/4.8.3/libgcc.a(_floatundidf.o)
 .debug_abbrev  0x000000000000762c      0x147 /opt/microchip/xc32/v2.40/bin/bin/../../lib/gcc/pic32mx/4.8.3/libgcc.a(_umoddi3.o)
 .debug_abbrev  0x0000000000007773       0x62 /opt/microchip/xc32/v2.40/bin/bin/../../lib/gcc/pic32mx/4.8.3/libgcc.a(floatunsidf.o)
 .debug_abbrev  0x00000000000077d5       0x28 /opt/microchip/xc32/v2.40/bin/bin/../../lib/gcc/pic32mx/4.8.3/../../../../pic32mx/lib/libpic32.a(read.o)
 .debug_abbrev  0x00000000000077fd       0x28 /opt/microchip/xc32/v2.40/bin/bin/../../lib/gcc/pic32mx/4.8.3/../../../../pic32mx/lib/libpic32.a(write.o)
 .debug_abbrev  0x0000000000007825       0x28 /opt/microchip/xc32/v2.40/bin/bin/../../lib/gcc/pic32mx/4.8.3/../../../../pic32mx/lib/libpic32.a(_mon_putc.o)

.debug_line     0x0000000000000000     0x9f43
 *(.debug_line)
 .debug_line    0x0000000000000000      0x24f build/default/debug/config/config.o
 .debug_line    0x000000000000024f      0x1b8 build/default/debug/delay/delay.o
 .debug_line    0x0000000000000407      0xbf4 build/default/debug/fatfs/ff.o
 .debug_line    0x0000000000000ffb       0x1d build/default/debug/fatfs/ffsystem.o
 .debug_line    0x0000000000001018       0xba build/default/debug/fatfs/ffunicode.o
 .debug_line    0x00000000000010d2      0x3a2 build/default/debug/fatfs/SPIFlash.o
 .debug_line    0x0000000000001474      0x20d build/default/debug/fatfs/diskio.o
 .debug_line    0x0000000000001681      0x145 build/default/debug/net/Announce.o
 .debug_line    0x00000000000017c6      0x145 build/default/debug/net/ARCFOUR.o
 .debug_line    0x000000000000190b      0x245 build/default/debug/net/ARP.o
 .debug_line    0x0000000000001b50      0x145 build/default/debug/net/AutoIP.o
 .debug_line    0x0000000000001c95      0x145 build/default/debug/net/BerkeleyAPI.o
 .debug_line    0x0000000000001dda      0x145 build/default/debug/net/BigInt.o
 .debug_line    0x0000000000001f1f      0x599 build/default/debug/CustomHTTPApp.o
 .debug_line    0x00000000000024b8      0x372 build/default/debug/net/DHCP.o
 .debug_line    0x000000000000282a      0x30b build/default/debug/net/DNS.o
 .debug_line    0x0000000000002b35      0x5de build/default/debug/net/ENC28J60.o
 .debug_line    0x0000000000003113      0x145 build/default/debug/net/FTP.o
 .debug_line    0x0000000000003258      0x1e1 build/default/debug/net/GenericTCPServer.o
 .debug_line    0x0000000000003439      0x145 build/default/debug/net/Hashes.o
 .debug_line    0x000000000000357e      0x363 build/default/debug/net/Helpers.o
 .debug_line    0x00000000000038e1      0x5d0 build/default/debug/net/HTTP2.o
 .debug_line    0x0000000000003eb1      0x1cb build/default/debug/net/ICMP.o
 .debug_line    0x000000000000407c      0x1fb build/default/debug/net/IP.o
 .debug_line    0x0000000000004277      0x34d build/default/debug/net/MPFS2.o
 .debug_line    0x00000000000045c4      0x153 build/default/debug/MPFSImg2.o
 .debug_line    0x0000000000004717      0x145 build/default/debug/net/NBNS.o
 .debug_line    0x000000000000485c      0x145 build/default/debug/net/Random.o
 .debug_line    0x00000000000049a1      0x145 build/default/debug/net/Reboot.o
 .debug_line    0x0000000000004ae6      0x145 build/default/debug/net/RSA.o
 .debug_line    0x0000000000004c2b      0x145 build/default/debug/net/SMTP.o
 .debug_line    0x0000000000004d70      0x270 build/default/debug/net/SNTP.o
 .debug_line    0x0000000000004fe0      0x145 build/default/debug/net/SSL.o
 .debug_line    0x0000000000005125      0x26e build/default/debug/net/StackTsk.o
 .debug_line    0x0000000000005393      0x9c8 build/default/debug/net/TCP.o
 .debug_line    0x0000000000005d5b      0x145 build/default/debug/net/Telnet.o
 .debug_line    0x0000000000005ea0      0x1e7 build/default/debug/net/Tick.o
 .debug_line    0x0000000000006087      0x37a build/default/debug/net/UDP.o
 .debug_line    0x0000000000006401      0x145 build/default/debug/net/ZeroconfHelper.o
 .debug_line    0x0000000000006546      0x145 build/default/debug/net/ZeroconfLinkLocal.o
 .debug_line    0x000000000000668b      0x145 build/default/debug/net/ZeroconfMulticastDNS.o
 .debug_line    0x00000000000067d0      0x1c0 build/default/debug/nvram/nvram.o
 .debug_line    0x0000000000006990      0x220 build/default/debug/time/time.o
 .debug_line    0x0000000000006bb0      0x1e6 build/default/debug/uart/uart.o
 .debug_line    0x0000000000006d96      0x1ef build/default/debug/uart/debug_uart.o
 .debug_line    0x0000000000006f85      0x1cc build/default/debug/usb/event.o
 .debug_line    0x0000000000007151      0x1a5 build/default/debug/usb/usb_descriptors.o
 .debug_line    0x00000000000072f6      0x624 build/default/debug/usb/usb_device.o
 .debug_line    0x000000000000791a      0x2bd build/default/debug/usb/usb_function_cdc.o
 .debug_line    0x0000000000007bd7      0x5a7 build/default/debug/main.o
 .debug_line    0x000000000000817e      0x24d build/default/debug/common.o
 .debug_line    0x00000000000083cb      0x13b /tmp/cc1HBx2X.o
 .debug_line    0x0000000000008506       0x6b /opt/microchip/xc32/v2.40/bin/bin/../../lib/gcc/pic32mx/4.8.3/../../../../pic32mx/lib/libmchp_peripheral.a(read_core_timer_lib.o)
 .debug_line    0x0000000000008571       0xa7 /opt/microchip/xc32/v2.40/bin/bin/../../lib/gcc/pic32mx/4.8.3/../../../../pic32mx/lib/libmchp_peripheral_32MX270F256B.a(soft_reset_lib.o)
 .debug_line    0x0000000000008618       0x6f /opt/microchip/xc32/v2.40/bin/bin/../../lib/gcc/pic32mx/4.8.3/../../../../pic32mx/lib/libmchp_peripheral_32MX270F256B.a(int_enable_interrupts_lib.o)
 .debug_line    0x0000000000008687       0x70 /opt/microchip/xc32/v2.40/bin/bin/../../lib/gcc/pic32mx/4.8.3/../../../../pic32mx/lib/libmchp_peripheral_32MX270F256B.a(int_disable_interrupts_lib.o)
 .debug_line    0x00000000000086f7       0x70 /opt/microchip/xc32/v2.40/bin/bin/../../lib/gcc/pic32mx/4.8.3/../../../../pic32mx/lib/libmchp_peripheral_32MX270F256B.a(int_restore_interrupts_lib.o)
 .debug_line    0x0000000000008767       0x6b /opt/microchip/xc32/v2.40/bin/bin/../../lib/gcc/pic32mx/4.8.3/../../../../pic32mx/lib/libmchp_peripheral_32MX270F256B.a(int_enable_mv_int_lib.o)
 .debug_line    0x00000000000087d2       0x61 /opt/microchip/xc32/v2.40/bin/bin/../../lib/gcc/pic32mx/4.8.3/../../../../pic32mx/lib/libmchp_peripheral_32MX270F256B.a(int_tbl_lib.o)
 .debug_line    0x0000000000008833       0x6d /opt/microchip/xc32/v2.40/bin/bin/../../lib/gcc/pic32mx/4.8.3/../../../../pic32mx/lib/libmchp_peripheral_32MX270F256B.a(rtcc_set_time_date_lib.o)
 .debug_line    0x00000000000088a0       0x68 /opt/microchip/xc32/v2.40/bin/bin/../../lib/gcc/pic32mx/4.8.3/../../../../pic32mx/lib/libmchp_peripheral_32MX270F256B.a(nvm_erase_page_lib.o)
 .debug_line    0x0000000000008908       0xa8 /opt/microchip/xc32/v2.40/bin/bin/../../lib/gcc/pic32mx/4.8.3/../../../../pic32mx/lib/libmchp_peripheral_32MX270F256B.a(nvm_operation_lib.o)
 .debug_line    0x00000000000089b0       0x68 /opt/microchip/xc32/v2.40/bin/bin/../../lib/gcc/pic32mx/4.8.3/../../../../pic32mx/lib/libmchp_peripheral_32MX270F256B.a(nvm_write_word_lib.o)
 .debug_line    0x0000000000008a18       0xd0 /opt/microchip/xc32/v2.40/bin/bin/../../lib/gcc/pic32mx/4.8.3/../../../../pic32mx/lib/libmchp_peripheral_32MX270F256B.a(_rtcc_set_time_and_date_lib.o)
 .debug_line    0x0000000000008ae8       0xa9 /opt/microchip/xc32/v2.40/bin/bin/../../lib/gcc/pic32mx/4.8.3/../../../../pic32mx/lib/libmchp_peripheral_32MX270F256B.a(_rtcc_wait_clock_off_lib.o)
 .debug_line    0x0000000000008b91       0xf7 /opt/microchip/xc32/v2.40/bin/bin/../../lib/gcc/pic32mx/4.8.3/libgcc.a(_udivdi3.o)
 .debug_line    0x0000000000008c88       0x94 /opt/microchip/xc32/v2.40/bin/bin/../../lib/gcc/pic32mx/4.8.3/libgcc.a(floatunsisf.o)
 .debug_line    0x0000000000008d1c       0xa6 /opt/microchip/xc32/v2.40/bin/bin/../../lib/gcc/pic32mx/4.8.3/../../../../pic32mx/lib/libpic32.a(default-bootstrap-exception-handler.o)
 .debug_line    0x0000000000008dc2       0x93 /opt/microchip/xc32/v2.40/bin/bin/../../lib/gcc/pic32mx/4.8.3/../../../../pic32mx/lib/libpic32.a(default-on-reset.o)
 .debug_line    0x0000000000008e55       0x97 /opt/microchip/xc32/v2.40/bin/bin/../../lib/gcc/pic32mx/4.8.3/../../../../pic32mx/lib/libpic32.a(default-on-bootstrap.o)
 .debug_line    0x0000000000008eec        0x0 /opt/microchip/xc32/v2.40/bin/bin/../../lib/gcc/pic32mx/4.8.3/../../../../pic32mx/lib/libpic32.a(xc32_uart.o)
 .debug_line    0x0000000000008eec       0xa5 /opt/microchip/xc32/v2.40/bin/bin/../../lib/gcc/pic32mx/4.8.3/../../../../pic32mx/lib/libpic32.a(defaultinterrupt.o)
 .debug_line    0x0000000000008f91       0x7c /opt/microchip/xc32/v2.40/bin/bin/../../lib/gcc/pic32mx/4.8.3/../../../../pic32mx/lib/libc.a(atoi.o)
 .debug_line    0x000000000000900d       0x7c /opt/microchip/xc32/v2.40/bin/bin/../../lib/gcc/pic32mx/4.8.3/../../../../pic32mx/lib/libc.a(atol.o)
 .debug_line    0x0000000000009089       0x7d /opt/microchip/xc32/v2.40/bin/bin/../../lib/gcc/pic32mx/4.8.3/../../../../pic32mx/lib/libc.a(ctime.o)
 .debug_line    0x0000000000009106        0x0 /opt/microchip/xc32/v2.40/bin/bin/../../lib/gcc/pic32mx/4.8.3/../../../../pic32mx/lib/libc.a(ctype.o)
 .debug_line    0x0000000000009106       0x7e /opt/microchip/xc32/v2.40/bin/bin/../../lib/gcc/pic32mx/4.8.3/../../../../pic32mx/lib/libc.a(mktime.o)
 .debug_line    0x0000000000009184       0x7c /opt/microchip/xc32/v2.40/bin/bin/../../lib/gcc/pic32mx/4.8.3/../../../../pic32mx/lib/libc.a(puts.o)
 .debug_line    0x0000000000009200       0x7c /opt/microchip/xc32/v2.40/bin/bin/../../lib/gcc/pic32mx/4.8.3/../../../../pic32mx/lib/libc.a(rand.o)
 .debug_line    0x000000000000927c       0x7f /opt/microchip/xc32/v2.40/bin/bin/../../lib/gcc/pic32mx/4.8.3/../../../../pic32mx/lib/libc.a(strncpy.o)
 .debug_line    0x00000000000092fb       0x7e /opt/microchip/xc32/v2.40/bin/bin/../../lib/gcc/pic32mx/4.8.3/../../../../pic32mx/lib/libc.a(printf_cdfFnopuxX.eo)
 .debug_line    0x0000000000009379       0x80 /opt/microchip/xc32/v2.40/bin/bin/../../lib/gcc/pic32mx/4.8.3/../../../../pic32mx/lib/libc.a(snprintf_cdnopuxX.eo)
 .debug_line    0x00000000000093f9       0x7f /opt/microchip/xc32/v2.40/bin/bin/../../lib/gcc/pic32mx/4.8.3/../../../../pic32mx/lib/libc.a(sprintf_cdnopsuxX.eo)
 .debug_line    0x0000000000009478       0x7e /opt/microchip/xc32/v2.40/bin/bin/../../lib/gcc/pic32mx/4.8.3/../../../../pic32mx/lib/libc.a(sscanf_cdnopuxX.eo)
 .debug_line    0x00000000000094f6       0x81 /opt/microchip/xc32/v2.40/bin/bin/../../lib/gcc/pic32mx/4.8.3/../../../../pic32mx/lib/libc.a(vsnprintf_cdnopuxX.eo)
 .debug_line    0x0000000000009577        0x0 /opt/microchip/xc32/v2.40/bin/bin/../../lib/gcc/pic32mx/4.8.3/../../../../pic32mx/lib/libc.a(_iob.o)
 .debug_line    0x0000000000009577       0x7d /opt/microchip/xc32/v2.40/bin/bin/../../lib/gcc/pic32mx/4.8.3/../../../../pic32mx/lib/libc.a(_fputc_simple.o)
 .debug_line    0x00000000000095f4       0x7e /opt/microchip/xc32/v2.40/bin/bin/../../lib/gcc/pic32mx/4.8.3/../../../../pic32mx/lib/libc.a(doscan_cdnopuxX.eo)
 .debug_line    0x0000000000009672       0x7e /opt/microchip/xc32/v2.40/bin/bin/../../lib/gcc/pic32mx/4.8.3/../../../../pic32mx/lib/libc.a(_flsbuf_simple.o)
 .debug_line    0x00000000000096f0       0x7d /opt/microchip/xc32/v2.40/bin/bin/../../lib/gcc/pic32mx/4.8.3/../../../../pic32mx/lib/libc.a(fgetc.o)
 .debug_line    0x000000000000976d       0x7e /opt/microchip/xc32/v2.40/bin/bin/../../lib/gcc/pic32mx/4.8.3/../../../../pic32mx/lib/libc.a(ctypef.o)
 .debug_line    0x00000000000097eb        0x0 /opt/microchip/xc32/v2.40/bin/bin/../../lib/gcc/pic32mx/4.8.3/../../../../pic32mx/lib/libc.a(ldpowers.o)
 .debug_line    0x00000000000097eb       0x7e /opt/microchip/xc32/v2.40/bin/bin/../../lib/gcc/pic32mx/4.8.3/../../../../pic32mx/lib/libc.a(ungetc.o)
 .debug_line    0x0000000000009869       0x7e /opt/microchip/xc32/v2.40/bin/bin/../../lib/gcc/pic32mx/4.8.3/../../../../pic32mx/lib/libc.a(filbuf.o)
 .debug_line    0x00000000000098e7       0x7e /opt/microchip/xc32/v2.40/bin/bin/../../lib/gcc/pic32mx/4.8.3/../../../../pic32mx/lib/libc.a(fflush.o)
 .debug_line    0x0000000000009965       0x7e /opt/microchip/xc32/v2.40/bin/bin/../../lib/gcc/pic32mx/4.8.3/../../../../pic32mx/lib/libc.a(doprnt_cdfFnopsuxX.eo)
 .debug_line    0x00000000000099e3       0x82 /opt/microchip/xc32/v2.40/bin/bin/../../lib/gcc/pic32mx/4.8.3/../../../../pic32mx/lib/libe.a(_fixunsdfdi.o)
 .debug_line    0x0000000000009a65       0x81 /opt/microchip/xc32/v2.40/bin/bin/../../lib/gcc/pic32mx/4.8.3/../../../../pic32mx/lib/libe.a(_orderdf2.o)
 .debug_line    0x0000000000009ae6       0x81 /opt/microchip/xc32/v2.40/bin/bin/../../lib/gcc/pic32mx/4.8.3/../../../../pic32mx/lib/libe.a(_fixdfdi.o)
 .debug_line    0x0000000000009b67       0xa5 /opt/microchip/xc32/v2.40/bin/bin/../../lib/gcc/pic32mx/4.8.3/libgcc.a(_floatundidf.o)
 .debug_line    0x0000000000009c0c      0x109 /opt/microchip/xc32/v2.40/bin/bin/../../lib/gcc/pic32mx/4.8.3/libgcc.a(_umoddi3.o)
 .debug_line    0x0000000000009d15       0x93 /opt/microchip/xc32/v2.40/bin/bin/../../lib/gcc/pic32mx/4.8.3/libgcc.a(floatunsidf.o)
 .debug_line    0x0000000000009da8       0x87 /opt/microchip/xc32/v2.40/bin/bin/../../lib/gcc/pic32mx/4.8.3/../../../../pic32mx/lib/libpic32.a(read.o)
 .debug_line    0x0000000000009e2f       0x88 /opt/microchip/xc32/v2.40/bin/bin/../../lib/gcc/pic32mx/4.8.3/../../../../pic32mx/lib/libpic32.a(write.o)
 .debug_line    0x0000000000009eb7       0x8c /opt/microchip/xc32/v2.40/bin/bin/../../lib/gcc/pic32mx/4.8.3/../../../../pic32mx/lib/libpic32.a(_mon_putc.o)

.debug_frame    0x0000000000000000     0x3210
 *(.debug_frame)
 .debug_frame   0x0000000000000000       0x4c build/default/debug/config/config.o
 .debug_frame   0x000000000000004c       0xa8 build/default/debug/delay/delay.o
 .debug_frame   0x00000000000000f4      0x750 build/default/debug/fatfs/ff.o
 .debug_frame   0x0000000000000844       0x40 build/default/debug/fatfs/ffunicode.o
 .debug_frame   0x0000000000000884       0xf4 build/default/debug/fatfs/SPIFlash.o
 .debug_frame   0x0000000000000978       0xcc build/default/debug/fatfs/diskio.o
 .debug_frame   0x0000000000000a44       0xbc build/default/debug/net/ARP.o
 .debug_frame   0x0000000000000b00      0x324 build/default/debug/CustomHTTPApp.o
 .debug_frame   0x0000000000000e24      0x114 build/default/debug/net/DHCP.o
 .debug_frame   0x0000000000000f38       0xc4 build/default/debug/net/DNS.o
 .debug_frame   0x0000000000000ffc      0x398 build/default/debug/net/ENC28J60.o
 .debug_frame   0x0000000000001394       0x38 build/default/debug/net/GenericTCPServer.o
 .debug_frame   0x00000000000013cc      0x174 build/default/debug/net/Helpers.o
 .debug_frame   0x0000000000001540      0x1a0 build/default/debug/net/HTTP2.o
 .debug_frame   0x00000000000016e0       0x30 build/default/debug/net/ICMP.o
 .debug_frame   0x0000000000001710       0x8c build/default/debug/net/IP.o
 .debug_frame   0x000000000000179c      0x220 build/default/debug/net/MPFS2.o
 .debug_frame   0x00000000000019bc       0x50 build/default/debug/net/SNTP.o
 .debug_frame   0x0000000000001a0c       0x6c build/default/debug/net/StackTsk.o
 .debug_frame   0x0000000000001a78      0x424 build/default/debug/net/TCP.o
 .debug_frame   0x0000000000001e9c       0xd0 build/default/debug/net/Tick.o
 .debug_frame   0x0000000000001f6c      0x1e8 build/default/debug/net/UDP.o
 .debug_frame   0x0000000000002154       0x44 build/default/debug/nvram/nvram.o
 .debug_frame   0x0000000000002198       0xa8 build/default/debug/time/time.o
 .debug_frame   0x0000000000002240       0xb0 build/default/debug/uart/uart.o
 .debug_frame   0x00000000000022f0       0xb4 build/default/debug/uart/debug_uart.o
 .debug_frame   0x00000000000023a4       0x2c build/default/debug/usb/event.o
 .debug_frame   0x00000000000023d0      0x138 build/default/debug/usb/usb_device.o
 .debug_frame   0x0000000000002508       0xcc build/default/debug/usb/usb_function_cdc.o
 .debug_frame   0x00000000000025d4      0x11c build/default/debug/main.o
 .debug_frame   0x00000000000026f0       0x70 build/default/debug/common.o
 .debug_frame   0x0000000000002760       0x20 /opt/microchip/xc32/v2.40/bin/bin/../../lib/gcc/pic32mx/4.8.3/../../../../pic32mx/lib/libmchp_peripheral.a(read_core_timer_lib.o)
 .debug_frame   0x0000000000002780       0x28 /opt/microchip/xc32/v2.40/bin/bin/../../lib/gcc/pic32mx/4.8.3/../../../../pic32mx/lib/libmchp_peripheral_32MX270F256B.a(soft_reset_lib.o)
 .debug_frame   0x00000000000027a8       0x20 /opt/microchip/xc32/v2.40/bin/bin/../../lib/gcc/pic32mx/4.8.3/../../../../pic32mx/lib/libmchp_peripheral_32MX270F256B.a(int_enable_interrupts_lib.o)
 .debug_frame   0x00000000000027c8       0x20 /opt/microchip/xc32/v2.40/bin/bin/../../lib/gcc/pic32mx/4.8.3/../../../../pic32mx/lib/libmchp_peripheral_32MX270F256B.a(int_disable_interrupts_lib.o)
 .debug_frame   0x00000000000027e8       0x20 /opt/microchip/xc32/v2.40/bin/bin/../../lib/gcc/pic32mx/4.8.3/../../../../pic32mx/lib/libmchp_peripheral_32MX270F256B.a(int_restore_interrupts_lib.o)
 .debug_frame   0x0000000000002808       0x28 /opt/microchip/xc32/v2.40/bin/bin/../../lib/gcc/pic32mx/4.8.3/../../../../pic32mx/lib/libmchp_peripheral_32MX270F256B.a(int_enable_mv_int_lib.o)
 .debug_frame   0x0000000000002830       0xa0 /opt/microchip/xc32/v2.40/bin/bin/../../lib/gcc/pic32mx/4.8.3/../../../../pic32mx/lib/libmchp_peripheral_32MX270F256B.a(int_tbl_lib.o)
 .debug_frame   0x00000000000028d0       0x28 /opt/microchip/xc32/v2.40/bin/bin/../../lib/gcc/pic32mx/4.8.3/../../../../pic32mx/lib/libmchp_peripheral_32MX270F256B.a(rtcc_set_time_date_lib.o)
 .debug_frame   0x00000000000028f8       0x28 /opt/microchip/xc32/v2.40/bin/bin/../../lib/gcc/pic32mx/4.8.3/../../../../pic32mx/lib/libmchp_peripheral_32MX270F256B.a(nvm_erase_page_lib.o)
 .debug_frame   0x0000000000002920       0x28 /opt/microchip/xc32/v2.40/bin/bin/../../lib/gcc/pic32mx/4.8.3/../../../../pic32mx/lib/libmchp_peripheral_32MX270F256B.a(nvm_operation_lib.o)
 .debug_frame   0x0000000000002948       0x28 /opt/microchip/xc32/v2.40/bin/bin/../../lib/gcc/pic32mx/4.8.3/../../../../pic32mx/lib/libmchp_peripheral_32MX270F256B.a(nvm_write_word_lib.o)
 .debug_frame   0x0000000000002970       0x30 /opt/microchip/xc32/v2.40/bin/bin/../../lib/gcc/pic32mx/4.8.3/../../../../pic32mx/lib/libmchp_peripheral_32MX270F256B.a(_rtcc_set_time_and_date_lib.o)
 .debug_frame   0x00000000000029a0       0x44 /opt/microchip/xc32/v2.40/bin/bin/../../lib/gcc/pic32mx/4.8.3/../../../../pic32mx/lib/libmchp_peripheral_32MX270F256B.a(_rtcc_wait_clock_off_lib.o)
 .debug_frame   0x00000000000029e4       0x20 /opt/microchip/xc32/v2.40/bin/bin/../../lib/gcc/pic32mx/4.8.3/libgcc.a(_udivdi3.o)
 .debug_frame   0x0000000000002a04       0x30 /opt/microchip/xc32/v2.40/bin/bin/../../lib/gcc/pic32mx/4.8.3/libgcc.a(floatunsisf.o)
 .debug_frame   0x0000000000002a34       0x2c /opt/microchip/xc32/v2.40/bin/bin/../../lib/gcc/pic32mx/4.8.3/../../../../pic32mx/lib/libpic32.a(default-bootstrap-exception-handler.o)
 .debug_frame   0x0000000000002a60       0x20 /opt/microchip/xc32/v2.40/bin/bin/../../lib/gcc/pic32mx/4.8.3/../../../../pic32mx/lib/libpic32.a(default-on-reset.o)
 .debug_frame   0x0000000000002a80       0x20 /opt/microchip/xc32/v2.40/bin/bin/../../lib/gcc/pic32mx/4.8.3/../../../../pic32mx/lib/libpic32.a(default-on-bootstrap.o)
 .debug_frame   0x0000000000002aa0       0x20 /opt/microchip/xc32/v2.40/bin/bin/../../lib/gcc/pic32mx/4.8.3/../../../../pic32mx/lib/libpic32.a(defaultinterrupt.o)
 .debug_frame   0x0000000000002ac0       0x20 /opt/microchip/xc32/v2.40/bin/bin/../../lib/gcc/pic32mx/4.8.3/../../../../pic32mx/lib/libc.a(atoi.o)
 .debug_frame   0x0000000000002ae0       0x20 /opt/microchip/xc32/v2.40/bin/bin/../../lib/gcc/pic32mx/4.8.3/../../../../pic32mx/lib/libc.a(atol.o)
 .debug_frame   0x0000000000002b00       0x88 /opt/microchip/xc32/v2.40/bin/bin/../../lib/gcc/pic32mx/4.8.3/../../../../pic32mx/lib/libc.a(ctime.o)
 .debug_frame   0x0000000000002b88       0x20 /opt/microchip/xc32/v2.40/bin/bin/../../lib/gcc/pic32mx/4.8.3/../../../../pic32mx/lib/libc.a(mktime.o)
 .debug_frame   0x0000000000002ba8       0x50 /opt/microchip/xc32/v2.40/bin/bin/../../lib/gcc/pic32mx/4.8.3/../../../../pic32mx/lib/libc.a(puts.o)
 .debug_frame   0x0000000000002bf8       0x30 /opt/microchip/xc32/v2.40/bin/bin/../../lib/gcc/pic32mx/4.8.3/../../../../pic32mx/lib/libc.a(rand.o)
 .debug_frame   0x0000000000002c28       0x20 /opt/microchip/xc32/v2.40/bin/bin/../../lib/gcc/pic32mx/4.8.3/../../../../pic32mx/lib/libc.a(strncpy.o)
 .debug_frame   0x0000000000002c48       0x2c /opt/microchip/xc32/v2.40/bin/bin/../../lib/gcc/pic32mx/4.8.3/../../../../pic32mx/lib/libc.a(printf_cdfFnopuxX.eo)
 .debug_frame   0x0000000000002c74       0x2c /opt/microchip/xc32/v2.40/bin/bin/../../lib/gcc/pic32mx/4.8.3/../../../../pic32mx/lib/libc.a(snprintf_cdnopuxX.eo)
 .debug_frame   0x0000000000002ca0       0x2c /opt/microchip/xc32/v2.40/bin/bin/../../lib/gcc/pic32mx/4.8.3/../../../../pic32mx/lib/libc.a(sprintf_cdnopsuxX.eo)
 .debug_frame   0x0000000000002ccc       0x2c /opt/microchip/xc32/v2.40/bin/bin/../../lib/gcc/pic32mx/4.8.3/../../../../pic32mx/lib/libc.a(sscanf_cdnopuxX.eo)
 .debug_frame   0x0000000000002cf8       0x30 /opt/microchip/xc32/v2.40/bin/bin/../../lib/gcc/pic32mx/4.8.3/../../../../pic32mx/lib/libc.a(vsnprintf_cdnopuxX.eo)
 .debug_frame   0x0000000000002d28       0x30 /opt/microchip/xc32/v2.40/bin/bin/../../lib/gcc/pic32mx/4.8.3/../../../../pic32mx/lib/libc.a(_fputc_simple.o)
 .debug_frame   0x0000000000002d58       0x98 /opt/microchip/xc32/v2.40/bin/bin/../../lib/gcc/pic32mx/4.8.3/../../../../pic32mx/lib/libc.a(doscan_cdnopuxX.eo)
 .debug_frame   0x0000000000002df0       0x38 /opt/microchip/xc32/v2.40/bin/bin/../../lib/gcc/pic32mx/4.8.3/../../../../pic32mx/lib/libc.a(_flsbuf_simple.o)
 .debug_frame   0x0000000000002e28       0x38 /opt/microchip/xc32/v2.40/bin/bin/../../lib/gcc/pic32mx/4.8.3/../../../../pic32mx/lib/libc.a(fgetc.o)
 .debug_frame   0x0000000000002e60      0x120 /opt/microchip/xc32/v2.40/bin/bin/../../lib/gcc/pic32mx/4.8.3/../../../../pic32mx/lib/libc.a(ctypef.o)
 .debug_frame   0x0000000000002f80       0x20 /opt/microchip/xc32/v2.40/bin/bin/../../lib/gcc/pic32mx/4.8.3/../../../../pic32mx/lib/libc.a(ungetc.o)
 .debug_frame   0x0000000000002fa0       0x44 /opt/microchip/xc32/v2.40/bin/bin/../../lib/gcc/pic32mx/4.8.3/../../../../pic32mx/lib/libc.a(filbuf.o)
 .debug_frame   0x0000000000002fe4       0x34 /opt/microchip/xc32/v2.40/bin/bin/../../lib/gcc/pic32mx/4.8.3/../../../../pic32mx/lib/libc.a(fflush.o)
 .debug_frame   0x0000000000003018       0x70 /opt/microchip/xc32/v2.40/bin/bin/../../lib/gcc/pic32mx/4.8.3/../../../../pic32mx/lib/libc.a(doprnt_cdfFnopsuxX.eo)
 .debug_frame   0x0000000000003088       0x34 /opt/microchip/xc32/v2.40/bin/bin/../../lib/gcc/pic32mx/4.8.3/../../../../pic32mx/lib/libe.a(_fixunsdfdi.o)
 .debug_frame   0x00000000000030bc       0x20 /opt/microchip/xc32/v2.40/bin/bin/../../lib/gcc/pic32mx/4.8.3/../../../../pic32mx/lib/libe.a(_orderdf2.o)
 .debug_frame   0x00000000000030dc       0x20 /opt/microchip/xc32/v2.40/bin/bin/../../lib/gcc/pic32mx/4.8.3/../../../../pic32mx/lib/libe.a(_fixdfdi.o)
 .debug_frame   0x00000000000030fc       0x2c /opt/microchip/xc32/v2.40/bin/bin/../../lib/gcc/pic32mx/4.8.3/libgcc.a(_floatundidf.o)
 .debug_frame   0x0000000000003128       0x20 /opt/microchip/xc32/v2.40/bin/bin/../../lib/gcc/pic32mx/4.8.3/libgcc.a(_umoddi3.o)
 .debug_frame   0x0000000000003148       0x2c /opt/microchip/xc32/v2.40/bin/bin/../../lib/gcc/pic32mx/4.8.3/libgcc.a(floatunsidf.o)
 .debug_frame   0x0000000000003174       0x38 /opt/microchip/xc32/v2.40/bin/bin/../../lib/gcc/pic32mx/4.8.3/../../../../pic32mx/lib/libpic32.a(read.o)
 .debug_frame   0x00000000000031ac       0x38 /opt/microchip/xc32/v2.40/bin/bin/../../lib/gcc/pic32mx/4.8.3/../../../../pic32mx/lib/libpic32.a(write.o)
 .debug_frame   0x00000000000031e4       0x2c /opt/microchip/xc32/v2.40/bin/bin/../../lib/gcc/pic32mx/4.8.3/../../../../pic32mx/lib/libpic32.a(_mon_putc.o)

.debug_str      0x0000000000000000      0x30d
 *(.debug_str)
 .debug_str     0x0000000000000000        0xa build/default/debug/config/config.o
 .debug_str     0x000000000000000a        0x0 build/default/debug/delay/delay.o
 .debug_str     0x000000000000000a       0x20 build/default/debug/fatfs/ff.o
 .debug_str     0x000000000000002a        0x0 build/default/debug/fatfs/ffsystem.o
 .debug_str     0x000000000000002a        0x0 build/default/debug/fatfs/ffunicode.o
 .debug_str     0x000000000000002a       0x1d build/default/debug/fatfs/SPIFlash.o
 .debug_str     0x0000000000000047        0xb build/default/debug/fatfs/diskio.o
 .debug_str     0x0000000000000052        0x0 build/default/debug/net/Announce.o
 .debug_str     0x0000000000000052        0x0 build/default/debug/net/ARCFOUR.o
 .debug_str     0x0000000000000052        0xe build/default/debug/net/ARP.o
 .debug_str     0x0000000000000060        0x0 build/default/debug/net/AutoIP.o
 .debug_str     0x0000000000000060        0x0 build/default/debug/net/BerkeleyAPI.o
 .debug_str     0x0000000000000060        0x0 build/default/debug/net/BigInt.o
 .debug_str     0x0000000000000060       0x29 build/default/debug/CustomHTTPApp.o
 .debug_str     0x0000000000000089        0xb build/default/debug/net/DHCP.o
 .debug_str     0x0000000000000094        0x0 build/default/debug/net/DNS.o
 .debug_str     0x0000000000000094       0x76 build/default/debug/net/ENC28J60.o
 .debug_str     0x000000000000010a        0x0 build/default/debug/net/FTP.o
 .debug_str     0x000000000000010a        0x0 build/default/debug/net/GenericTCPServer.o
 .debug_str     0x000000000000010a        0x0 build/default/debug/net/Hashes.o
 .debug_str     0x000000000000010a        0x0 build/default/debug/net/Helpers.o
 .debug_str     0x000000000000010a       0x18 build/default/debug/net/HTTP2.o
 .debug_str     0x0000000000000122        0x0 build/default/debug/net/ICMP.o
 .debug_str     0x0000000000000122        0x9 build/default/debug/net/IP.o
 .debug_str     0x000000000000012b       0x19 build/default/debug/net/MPFS2.o
 .debug_str     0x0000000000000144        0x0 build/default/debug/MPFSImg2.o
 .debug_str     0x0000000000000144        0x0 build/default/debug/net/NBNS.o
 .debug_str     0x0000000000000144        0x0 build/default/debug/net/Random.o
 .debug_str     0x0000000000000144        0x0 build/default/debug/net/Reboot.o
 .debug_str     0x0000000000000144        0x0 build/default/debug/net/RSA.o
 .debug_str     0x0000000000000144        0x0 build/default/debug/net/SMTP.o
 .debug_str     0x0000000000000144        0x0 build/default/debug/net/SNTP.o
 .debug_str     0x0000000000000144        0x0 build/default/debug/net/SSL.o
 .debug_str     0x0000000000000144        0x0 build/default/debug/net/StackTsk.o
 .debug_str     0x0000000000000144       0xac build/default/debug/net/TCP.o
 .debug_str     0x00000000000001f0        0x0 build/default/debug/net/Telnet.o
 .debug_str     0x00000000000001f0        0x0 build/default/debug/net/Tick.o
 .debug_str     0x00000000000001f0       0x41 build/default/debug/net/UDP.o
 .debug_str     0x0000000000000231        0x0 build/default/debug/net/ZeroconfHelper.o
 .debug_str     0x0000000000000231        0x0 build/default/debug/net/ZeroconfLinkLocal.o
 .debug_str     0x0000000000000231        0x0 build/default/debug/net/ZeroconfMulticastDNS.o
 .debug_str     0x0000000000000231        0x0 build/default/debug/nvram/nvram.o
 .debug_str     0x0000000000000231        0xd build/default/debug/time/time.o
 .debug_str     0x000000000000023e       0x24 build/default/debug/uart/uart.o
 .debug_str     0x0000000000000262        0x0 build/default/debug/uart/debug_uart.o
 .debug_str     0x0000000000000262        0x0 build/default/debug/usb/event.o
 .debug_str     0x0000000000000262       0x18 build/default/debug/usb/usb_descriptors.o
 .debug_str     0x000000000000027a       0x41 build/default/debug/usb/usb_device.o
 .debug_str     0x00000000000002bb       0x17 build/default/debug/usb/usb_function_cdc.o
 .debug_str     0x00000000000002d2       0x3b build/default/debug/main.o
 .debug_str     0x000000000000030d        0x0 build/default/debug/common.o
 .debug_str     0x000000000000030d        0x0 /opt/microchip/xc32/v2.40/bin/bin/../../lib/gcc/pic32mx/4.8.3/../../../../pic32mx/lib/libmchp_peripheral.a(read_core_timer_lib.o)
 .debug_str     0x000000000000030d        0x0 /opt/microchip/xc32/v2.40/bin/bin/../../lib/gcc/pic32mx/4.8.3/../../../../pic32mx/lib/libmchp_peripheral_32MX270F256B.a(soft_reset_lib.o)
 .debug_str     0x000000000000030d        0x0 /opt/microchip/xc32/v2.40/bin/bin/../../lib/gcc/pic32mx/4.8.3/../../../../pic32mx/lib/libmchp_peripheral_32MX270F256B.a(int_enable_interrupts_lib.o)
 .debug_str     0x000000000000030d        0x0 /opt/microchip/xc32/v2.40/bin/bin/../../lib/gcc/pic32mx/4.8.3/../../../../pic32mx/lib/libmchp_peripheral_32MX270F256B.a(int_disable_interrupts_lib.o)
 .debug_str     0x000000000000030d        0x0 /opt/microchip/xc32/v2.40/bin/bin/../../lib/gcc/pic32mx/4.8.3/../../../../pic32mx/lib/libmchp_peripheral_32MX270F256B.a(int_restore_interrupts_lib.o)
 .debug_str     0x000000000000030d        0x0 /opt/microchip/xc32/v2.40/bin/bin/../../lib/gcc/pic32mx/4.8.3/../../../../pic32mx/lib/libmchp_peripheral_32MX270F256B.a(int_enable_mv_int_lib.o)
 .debug_str     0x000000000000030d        0x0 /opt/microchip/xc32/v2.40/bin/bin/../../lib/gcc/pic32mx/4.8.3/../../../../pic32mx/lib/libmchp_peripheral_32MX270F256B.a(int_tbl_lib.o)
 .debug_str     0x000000000000030d        0x0 /opt/microchip/xc32/v2.40/bin/bin/../../lib/gcc/pic32mx/4.8.3/../../../../pic32mx/lib/libmchp_peripheral_32MX270F256B.a(rtcc_set_time_date_lib.o)
 .debug_str     0x000000000000030d        0x0 /opt/microchip/xc32/v2.40/bin/bin/../../lib/gcc/pic32mx/4.8.3/../../../../pic32mx/lib/libmchp_peripheral_32MX270F256B.a(nvm_erase_page_lib.o)
 .debug_str     0x000000000000030d        0x0 /opt/microchip/xc32/v2.40/bin/bin/../../lib/gcc/pic32mx/4.8.3/../../../../pic32mx/lib/libmchp_peripheral_32MX270F256B.a(nvm_operation_lib.o)
 .debug_str     0x000000000000030d        0x0 /opt/microchip/xc32/v2.40/bin/bin/../../lib/gcc/pic32mx/4.8.3/../../../../pic32mx/lib/libmchp_peripheral_32MX270F256B.a(nvm_write_word_lib.o)
 .debug_str     0x000000000000030d        0x0 /opt/microchip/xc32/v2.40/bin/bin/../../lib/gcc/pic32mx/4.8.3/../../../../pic32mx/lib/libmchp_peripheral_32MX270F256B.a(_rtcc_set_time_and_date_lib.o)
 .debug_str     0x000000000000030d        0x0 /opt/microchip/xc32/v2.40/bin/bin/../../lib/gcc/pic32mx/4.8.3/../../../../pic32mx/lib/libmchp_peripheral_32MX270F256B.a(_rtcc_wait_clock_off_lib.o)
 .debug_str     0x000000000000030d        0x0 /opt/microchip/xc32/v2.40/bin/bin/../../lib/gcc/pic32mx/4.8.3/libgcc.a(_udivdi3.o)
 .debug_str     0x000000000000030d        0x0 /opt/microchip/xc32/v2.40/bin/bin/../../lib/gcc/pic32mx/4.8.3/libgcc.a(floatunsisf.o)
 .debug_str     0x000000000000030d        0x0 /opt/microchip/xc32/v2.40/bin/bin/../../lib/gcc/pic32mx/4.8.3/../../../../pic32mx/lib/libpic32.a(default-bootstrap-exception-handler.o)
 .debug_str     0x000000000000030d        0x0 /opt/microchip/xc32/v2.40/bin/bin/../../lib/gcc/pic32mx/4.8.3/../../../../pic32mx/lib/libpic32.a(default-on-reset.o)
 .debug_str     0x000000000000030d        0x0 /opt/microchip/xc32/v2.40/bin/bin/../../lib/gcc/pic32mx/4.8.3/../../../../pic32mx/lib/libpic32.a(default-on-bootstrap.o)
 .debug_str     0x000000000000030d        0x0 /opt/microchip/xc32/v2.40/bin/bin/../../lib/gcc/pic32mx/4.8.3/../../../../pic32mx/lib/libpic32.a(xc32_uart.o)
 .debug_str     0x000000000000030d        0x0 /opt/microchip/xc32/v2.40/bin/bin/../../lib/gcc/pic32mx/4.8.3/../../../../pic32mx/lib/libpic32.a(defaultinterrupt.o)
 .debug_str     0x000000000000030d        0x0 /opt/microchip/xc32/v2.40/bin/bin/../../lib/gcc/pic32mx/4.8.3/../../../../pic32mx/lib/libc.a(atoi.o)
 .debug_str     0x000000000000030d        0x0 /opt/microchip/xc32/v2.40/bin/bin/../../lib/gcc/pic32mx/4.8.3/../../../../pic32mx/lib/libc.a(atol.o)
 .debug_str     0x000000000000030d        0x0 /opt/microchip/xc32/v2.40/bin/bin/../../lib/gcc/pic32mx/4.8.3/../../../../pic32mx/lib/libc.a(ctime.o)
 .debug_str     0x000000000000030d        0x0 /opt/microchip/xc32/v2.40/bin/bin/../../lib/gcc/pic32mx/4.8.3/../../../../pic32mx/lib/libc.a(ctype.o)
 .debug_str     0x000000000000030d        0x0 /opt/microchip/xc32/v2.40/bin/bin/../../lib/gcc/pic32mx/4.8.3/../../../../pic32mx/lib/libc.a(mktime.o)
 .debug_str     0x000000000000030d        0x0 /opt/microchip/xc32/v2.40/bin/bin/../../lib/gcc/pic32mx/4.8.3/../../../../pic32mx/lib/libc.a(puts.o)
 .debug_str     0x000000000000030d        0x0 /opt/microchip/xc32/v2.40/bin/bin/../../lib/gcc/pic32mx/4.8.3/../../../../pic32mx/lib/libc.a(rand.o)
 .debug_str     0x000000000000030d        0x0 /opt/microchip/xc32/v2.40/bin/bin/../../lib/gcc/pic32mx/4.8.3/../../../../pic32mx/lib/libc.a(strncpy.o)
 .debug_str     0x000000000000030d        0x0 /opt/microchip/xc32/v2.40/bin/bin/../../lib/gcc/pic32mx/4.8.3/../../../../pic32mx/lib/libc.a(printf_cdfFnopuxX.eo)
 .debug_str     0x000000000000030d        0x0 /opt/microchip/xc32/v2.40/bin/bin/../../lib/gcc/pic32mx/4.8.3/../../../../pic32mx/lib/libc.a(snprintf_cdnopuxX.eo)
 .debug_str     0x000000000000030d        0x0 /opt/microchip/xc32/v2.40/bin/bin/../../lib/gcc/pic32mx/4.8.3/../../../../pic32mx/lib/libc.a(sprintf_cdnopsuxX.eo)
 .debug_str     0x000000000000030d        0x0 /opt/microchip/xc32/v2.40/bin/bin/../../lib/gcc/pic32mx/4.8.3/../../../../pic32mx/lib/libc.a(sscanf_cdnopuxX.eo)
 .debug_str     0x000000000000030d        0x0 /opt/microchip/xc32/v2.40/bin/bin/../../lib/gcc/pic32mx/4.8.3/../../../../pic32mx/lib/libc.a(vsnprintf_cdnopuxX.eo)
 .debug_str     0x000000000000030d        0x0 /opt/microchip/xc32/v2.40/bin/bin/../../lib/gcc/pic32mx/4.8.3/../../../../pic32mx/lib/libc.a(_iob.o)
 .debug_str     0x000000000000030d        0x0 /opt/microchip/xc32/v2.40/bin/bin/../../lib/gcc/pic32mx/4.8.3/../../../../pic32mx/lib/libc.a(_fputc_simple.o)
 .debug_str     0x000000000000030d        0x0 /opt/microchip/xc32/v2.40/bin/bin/../../lib/gcc/pic32mx/4.8.3/../../../../pic32mx/lib/libc.a(doscan_cdnopuxX.eo)
 .debug_str     0x000000000000030d        0x0 /opt/microchip/xc32/v2.40/bin/bin/../../lib/gcc/pic32mx/4.8.3/../../../../pic32mx/lib/libc.a(_flsbuf_simple.o)
 .debug_str     0x000000000000030d        0x0 /opt/microchip/xc32/v2.40/bin/bin/../../lib/gcc/pic32mx/4.8.3/../../../../pic32mx/lib/libc.a(fgetc.o)
 .debug_str     0x000000000000030d        0x0 /opt/microchip/xc32/v2.40/bin/bin/../../lib/gcc/pic32mx/4.8.3/../../../../pic32mx/lib/libc.a(ctypef.o)
 .debug_str     0x000000000000030d        0x0 /opt/microchip/xc32/v2.40/bin/bin/../../lib/gcc/pic32mx/4.8.3/../../../../pic32mx/lib/libc.a(ldpowers.o)
 .debug_str     0x000000000000030d        0x0 /opt/microchip/xc32/v2.40/bin/bin/../../lib/gcc/pic32mx/4.8.3/../../../../pic32mx/lib/libc.a(ungetc.o)
 .debug_str     0x000000000000030d        0x0 /opt/microchip/xc32/v2.40/bin/bin/../../lib/gcc/pic32mx/4.8.3/../../../../pic32mx/lib/libc.a(filbuf.o)
 .debug_str     0x000000000000030d        0x0 /opt/microchip/xc32/v2.40/bin/bin/../../lib/gcc/pic32mx/4.8.3/../../../../pic32mx/lib/libc.a(fflush.o)
 .debug_str     0x000000000000030d        0x0 /opt/microchip/xc32/v2.40/bin/bin/../../lib/gcc/pic32mx/4.8.3/../../../../pic32mx/lib/libc.a(doprnt_cdfFnopsuxX.eo)
 .debug_str     0x000000000000030d        0x0 /opt/microchip/xc32/v2.40/bin/bin/../../lib/gcc/pic32mx/4.8.3/../../../../pic32mx/lib/libe.a(_fixunsdfdi.o)
 .debug_str     0x000000000000030d        0x0 /opt/microchip/xc32/v2.40/bin/bin/../../lib/gcc/pic32mx/4.8.3/../../../../pic32mx/lib/libe.a(_orderdf2.o)
 .debug_str     0x000000000000030d        0x0 /opt/microchip/xc32/v2.40/bin/bin/../../lib/gcc/pic32mx/4.8.3/../../../../pic32mx/lib/libe.a(_fixdfdi.o)
 .debug_str     0x000000000000030d        0x0 /opt/microchip/xc32/v2.40/bin/bin/../../lib/gcc/pic32mx/4.8.3/libgcc.a(_floatundidf.o)
 .debug_str     0x000000000000030d        0x0 /opt/microchip/xc32/v2.40/bin/bin/../../lib/gcc/pic32mx/4.8.3/libgcc.a(_umoddi3.o)
 .debug_str     0x000000000000030d        0x0 /opt/microchip/xc32/v2.40/bin/bin/../../lib/gcc/pic32mx/4.8.3/libgcc.a(floatunsidf.o)
 .debug_str     0x000000000000030d        0x0 /opt/microchip/xc32/v2.40/bin/bin/../../lib/gcc/pic32mx/4.8.3/../../../../pic32mx/lib/libpic32.a(read.o)
 .debug_str     0x000000000000030d        0x0 /opt/microchip/xc32/v2.40/bin/bin/../../lib/gcc/pic32mx/4.8.3/../../../../pic32mx/lib/libpic32.a(write.o)
 .debug_str     0x000000000000030d        0x0 /opt/microchip/xc32/v2.40/bin/bin/../../lib/gcc/pic32mx/4.8.3/../../../../pic32mx/lib/libpic32.a(_mon_putc.o)

.debug_loc      0x0000000000000000    0x111ae
 *(.debug_loc)
 .debug_loc     0x0000000000000000       0xcf build/default/debug/config/config.o
 .debug_loc     0x00000000000000cf      0x25c build/default/debug/delay/delay.o
 .debug_loc     0x000000000000032b     0x6575 build/default/debug/fatfs/ff.o
 .debug_loc     0x00000000000068a0      0x31c build/default/debug/fatfs/ffunicode.o
 .debug_loc     0x0000000000006bbc      0x399 build/default/debug/fatfs/SPIFlash.o
 .debug_loc     0x0000000000006f55      0x2b4 build/default/debug/fatfs/diskio.o
 .debug_loc     0x0000000000007209      0x1d9 build/default/debug/net/ARP.o
 .debug_loc     0x00000000000073e2      0x751 build/default/debug/CustomHTTPApp.o
 .debug_loc     0x0000000000007b33      0x30e build/default/debug/net/DHCP.o
 .debug_loc     0x0000000000007e41      0x2af build/default/debug/net/DNS.o
 .debug_loc     0x00000000000080f0      0xf57 build/default/debug/net/ENC28J60.o
 .debug_loc     0x0000000000009047      0x142 build/default/debug/net/GenericTCPServer.o
 .debug_loc     0x0000000000009189      0xd29 build/default/debug/net/Helpers.o
 .debug_loc     0x0000000000009eb2      0xdce build/default/debug/net/HTTP2.o
 .debug_loc     0x000000000000ac80       0x79 build/default/debug/net/ICMP.o
 .debug_loc     0x000000000000acf9      0x23e build/default/debug/net/IP.o
 .debug_loc     0x000000000000af37      0x87e build/default/debug/net/MPFS2.o
 .debug_loc     0x000000000000b7b5       0xf7 build/default/debug/net/SNTP.o
 .debug_loc     0x000000000000b8ac       0xa6 build/default/debug/net/StackTsk.o
 .debug_loc     0x000000000000b952     0x2307 build/default/debug/net/TCP.o
 .debug_loc     0x000000000000dc59      0x16b build/default/debug/net/Tick.o
 .debug_loc     0x000000000000ddc4      0x824 build/default/debug/net/UDP.o
 .debug_loc     0x000000000000e5e8      0x28c build/default/debug/nvram/nvram.o
 .debug_loc     0x000000000000e874       0x98 build/default/debug/time/time.o
 .debug_loc     0x000000000000e90c       0xe3 build/default/debug/uart/uart.o
 .debug_loc     0x000000000000e9ef      0x148 build/default/debug/uart/debug_uart.o
 .debug_loc     0x000000000000eb37      0x2ec build/default/debug/usb/event.o
 .debug_loc     0x000000000000ee23      0x529 build/default/debug/usb/usb_device.o
 .debug_loc     0x000000000000f34c      0x2a8 build/default/debug/usb/usb_function_cdc.o
 .debug_loc     0x000000000000f5f4      0x33b build/default/debug/main.o
 .debug_loc     0x000000000000f92f      0x1d3 build/default/debug/common.o
 .debug_loc     0x000000000000fb02      0xa6a /opt/microchip/xc32/v2.40/bin/bin/../../lib/gcc/pic32mx/4.8.3/libgcc.a(_udivdi3.o)
 .debug_loc     0x000000000001056c       0x74 /opt/microchip/xc32/v2.40/bin/bin/../../lib/gcc/pic32mx/4.8.3/libgcc.a(floatunsisf.o)
 .debug_loc     0x00000000000105e0       0x2c /opt/microchip/xc32/v2.40/bin/bin/../../lib/gcc/pic32mx/4.8.3/../../../../pic32mx/lib/libpic32.a(default-bootstrap-exception-handler.o)
 .debug_loc     0x000000000001060c       0x2c /opt/microchip/xc32/v2.40/bin/bin/../../lib/gcc/pic32mx/4.8.3/../../../../pic32mx/lib/libe.a(_fixunsdfdi.o)
 .debug_loc     0x0000000000010638       0x41 /opt/microchip/xc32/v2.40/bin/bin/../../lib/gcc/pic32mx/4.8.3/libgcc.a(_floatundidf.o)
 .debug_loc     0x0000000000010679      0xa3d /opt/microchip/xc32/v2.40/bin/bin/../../lib/gcc/pic32mx/4.8.3/libgcc.a(_umoddi3.o)
 .debug_loc     0x00000000000110b6       0x80 /opt/microchip/xc32/v2.40/bin/bin/../../lib/gcc/pic32mx/4.8.3/libgcc.a(floatunsidf.o)
 .debug_loc     0x0000000000011136       0x20 /opt/microchip/xc32/v2.40/bin/bin/../../lib/gcc/pic32mx/4.8.3/../../../../pic32mx/lib/libpic32.a(read.o)
 .debug_loc     0x0000000000011156       0x38 /opt/microchip/xc32/v2.40/bin/bin/../../lib/gcc/pic32mx/4.8.3/../../../../pic32mx/lib/libpic32.a(write.o)
 .debug_loc     0x000000000001118e       0x20 /opt/microchip/xc32/v2.40/bin/bin/../../lib/gcc/pic32mx/4.8.3/../../../../pic32mx/lib/libpic32.a(_mon_putc.o)

.debug_macinfo
 *(.debug_macinfo)

.debug_weaknames
 *(.debug_weaknames)

.debug_funcnames
 *(.debug_funcnames)

.debug_typenames
 *(.debug_typenames)

.debug_varnames
 *(.debug_varnames)

.debug_pubtypes
 *(.debug_pubtypes)

.debug_ranges   0x0000000000000000     0x1180
 *(.debug_ranges)
 .debug_ranges  0x0000000000000000      0x1c8 build/default/debug/fatfs/ff.o
 .debug_ranges  0x00000000000001c8       0x60 build/default/debug/fatfs/SPIFlash.o
 .debug_ranges  0x0000000000000228       0xd8 build/default/debug/CustomHTTPApp.o
 .debug_ranges  0x0000000000000300       0x80 build/default/debug/net/ENC28J60.o
 .debug_ranges  0x0000000000000380      0x240 build/default/debug/net/HTTP2.o
 .debug_ranges  0x00000000000005c0       0x18 build/default/debug/net/MPFS2.o
 .debug_ranges  0x00000000000005d8       0x20 build/default/debug/net/SNTP.o
 .debug_ranges  0x00000000000005f8      0x128 build/default/debug/net/TCP.o
 .debug_ranges  0x0000000000000720       0x18 build/default/debug/net/Tick.o
 .debug_ranges  0x0000000000000738       0x30 build/default/debug/net/UDP.o
 .debug_ranges  0x0000000000000768      0x438 build/default/debug/usb/usb_device.o
 .debug_ranges  0x0000000000000ba0       0x68 build/default/debug/main.o
 .debug_ranges  0x0000000000000c08       0x38 /tmp/cc1HBx2X.o
 .debug_ranges  0x0000000000000c40       0x10 /opt/microchip/xc32/v2.40/bin/bin/../../lib/gcc/pic32mx/4.8.3/../../../../pic32mx/lib/libmchp_peripheral.a(read_core_timer_lib.o)
 .debug_ranges  0x0000000000000c50       0x10 /opt/microchip/xc32/v2.40/bin/bin/../../lib/gcc/pic32mx/4.8.3/../../../../pic32mx/lib/libmchp_peripheral_32MX270F256B.a(soft_reset_lib.o)
 .debug_ranges  0x0000000000000c60       0x10 /opt/microchip/xc32/v2.40/bin/bin/../../lib/gcc/pic32mx/4.8.3/../../../../pic32mx/lib/libmchp_peripheral_32MX270F256B.a(int_enable_interrupts_lib.o)
 .debug_ranges  0x0000000000000c70       0x10 /opt/microchip/xc32/v2.40/bin/bin/../../lib/gcc/pic32mx/4.8.3/../../../../pic32mx/lib/libmchp_peripheral_32MX270F256B.a(int_disable_interrupts_lib.o)
 .debug_ranges  0x0000000000000c80       0x10 /opt/microchip/xc32/v2.40/bin/bin/../../lib/gcc/pic32mx/4.8.3/../../../../pic32mx/lib/libmchp_peripheral_32MX270F256B.a(int_restore_interrupts_lib.o)
 .debug_ranges  0x0000000000000c90       0x10 /opt/microchip/xc32/v2.40/bin/bin/../../lib/gcc/pic32mx/4.8.3/../../../../pic32mx/lib/libmchp_peripheral_32MX270F256B.a(int_enable_mv_int_lib.o)
 .debug_ranges  0x0000000000000ca0       0x50 /opt/microchip/xc32/v2.40/bin/bin/../../lib/gcc/pic32mx/4.8.3/../../../../pic32mx/lib/libmchp_peripheral_32MX270F256B.a(int_tbl_lib.o)
 .debug_ranges  0x0000000000000cf0       0x10 /opt/microchip/xc32/v2.40/bin/bin/../../lib/gcc/pic32mx/4.8.3/../../../../pic32mx/lib/libmchp_peripheral_32MX270F256B.a(rtcc_set_time_date_lib.o)
 .debug_ranges  0x0000000000000d00       0x10 /opt/microchip/xc32/v2.40/bin/bin/../../lib/gcc/pic32mx/4.8.3/../../../../pic32mx/lib/libmchp_peripheral_32MX270F256B.a(nvm_erase_page_lib.o)
 .debug_ranges  0x0000000000000d10       0x10 /opt/microchip/xc32/v2.40/bin/bin/../../lib/gcc/pic32mx/4.8.3/../../../../pic32mx/lib/libmchp_peripheral_32MX270F256B.a(nvm_operation_lib.o)
 .debug_ranges  0x0000000000000d20       0x10 /opt/microchip/xc32/v2.40/bin/bin/../../lib/gcc/pic32mx/4.8.3/../../../../pic32mx/lib/libmchp_peripheral_32MX270F256B.a(nvm_write_word_lib.o)
 .debug_ranges  0x0000000000000d30       0x10 /opt/microchip/xc32/v2.40/bin/bin/../../lib/gcc/pic32mx/4.8.3/../../../../pic32mx/lib/libmchp_peripheral_32MX270F256B.a(_rtcc_set_time_and_date_lib.o)
 .debug_ranges  0x0000000000000d40       0x18 /opt/microchip/xc32/v2.40/bin/bin/../../lib/gcc/pic32mx/4.8.3/../../../../pic32mx/lib/libmchp_peripheral_32MX270F256B.a(_rtcc_wait_clock_off_lib.o)
 .debug_ranges  0x0000000000000d58       0x98 /opt/microchip/xc32/v2.40/bin/bin/../../lib/gcc/pic32mx/4.8.3/libgcc.a(_udivdi3.o)
 .debug_ranges  0x0000000000000df0       0x10 /opt/microchip/xc32/v2.40/bin/bin/../../lib/gcc/pic32mx/4.8.3/../../../../pic32mx/lib/libpic32.a(default-bootstrap-exception-handler.o)
 .debug_ranges  0x0000000000000e00       0x10 /opt/microchip/xc32/v2.40/bin/bin/../../lib/gcc/pic32mx/4.8.3/../../../../pic32mx/lib/libpic32.a(default-on-reset.o)
 .debug_ranges  0x0000000000000e10       0x10 /opt/microchip/xc32/v2.40/bin/bin/../../lib/gcc/pic32mx/4.8.3/../../../../pic32mx/lib/libpic32.a(default-on-bootstrap.o)
 .debug_ranges  0x0000000000000e20       0x10 /opt/microchip/xc32/v2.40/bin/bin/../../lib/gcc/pic32mx/4.8.3/../../../../pic32mx/lib/libpic32.a(defaultinterrupt.o)
 .debug_ranges  0x0000000000000e30       0x10 /opt/microchip/xc32/v2.40/bin/bin/../../lib/gcc/pic32mx/4.8.3/../../../../pic32mx/lib/libc.a(atoi.o)
 .debug_ranges  0x0000000000000e40       0x10 /opt/microchip/xc32/v2.40/bin/bin/../../lib/gcc/pic32mx/4.8.3/../../../../pic32mx/lib/libc.a(atol.o)
 .debug_ranges  0x0000000000000e50       0x30 /opt/microchip/xc32/v2.40/bin/bin/../../lib/gcc/pic32mx/4.8.3/../../../../pic32mx/lib/libc.a(ctime.o)
 .debug_ranges  0x0000000000000e80       0x10 /opt/microchip/xc32/v2.40/bin/bin/../../lib/gcc/pic32mx/4.8.3/../../../../pic32mx/lib/libc.a(mktime.o)
 .debug_ranges  0x0000000000000e90       0x18 /opt/microchip/xc32/v2.40/bin/bin/../../lib/gcc/pic32mx/4.8.3/../../../../pic32mx/lib/libc.a(puts.o)
 .debug_ranges  0x0000000000000ea8       0x18 /opt/microchip/xc32/v2.40/bin/bin/../../lib/gcc/pic32mx/4.8.3/../../../../pic32mx/lib/libc.a(rand.o)
 .debug_ranges  0x0000000000000ec0       0x10 /opt/microchip/xc32/v2.40/bin/bin/../../lib/gcc/pic32mx/4.8.3/../../../../pic32mx/lib/libc.a(strncpy.o)
 .debug_ranges  0x0000000000000ed0       0x10 /opt/microchip/xc32/v2.40/bin/bin/../../lib/gcc/pic32mx/4.8.3/../../../../pic32mx/lib/libc.a(printf_cdfFnopuxX.eo)
 .debug_ranges  0x0000000000000ee0       0x10 /opt/microchip/xc32/v2.40/bin/bin/../../lib/gcc/pic32mx/4.8.3/../../../../pic32mx/lib/libc.a(snprintf_cdnopuxX.eo)
 .debug_ranges  0x0000000000000ef0       0x10 /opt/microchip/xc32/v2.40/bin/bin/../../lib/gcc/pic32mx/4.8.3/../../../../pic32mx/lib/libc.a(sprintf_cdnopsuxX.eo)
 .debug_ranges  0x0000000000000f00       0x10 /opt/microchip/xc32/v2.40/bin/bin/../../lib/gcc/pic32mx/4.8.3/../../../../pic32mx/lib/libc.a(sscanf_cdnopuxX.eo)
 .debug_ranges  0x0000000000000f10       0x10 /opt/microchip/xc32/v2.40/bin/bin/../../lib/gcc/pic32mx/4.8.3/../../../../pic32mx/lib/libc.a(vsnprintf_cdnopuxX.eo)
 .debug_ranges  0x0000000000000f20       0x10 /opt/microchip/xc32/v2.40/bin/bin/../../lib/gcc/pic32mx/4.8.3/../../../../pic32mx/lib/libc.a(_fputc_simple.o)
 .debug_ranges  0x0000000000000f30       0x20 /opt/microchip/xc32/v2.40/bin/bin/../../lib/gcc/pic32mx/4.8.3/../../../../pic32mx/lib/libc.a(doscan_cdnopuxX.eo)
 .debug_ranges  0x0000000000000f50       0x10 /opt/microchip/xc32/v2.40/bin/bin/../../lib/gcc/pic32mx/4.8.3/../../../../pic32mx/lib/libc.a(_flsbuf_simple.o)
 .debug_ranges  0x0000000000000f60       0x10 /opt/microchip/xc32/v2.40/bin/bin/../../lib/gcc/pic32mx/4.8.3/../../../../pic32mx/lib/libc.a(fgetc.o)
 .debug_ranges  0x0000000000000f70       0x90 /opt/microchip/xc32/v2.40/bin/bin/../../lib/gcc/pic32mx/4.8.3/../../../../pic32mx/lib/libc.a(ctypef.o)
 .debug_ranges  0x0000000000001000       0x10 /opt/microchip/xc32/v2.40/bin/bin/../../lib/gcc/pic32mx/4.8.3/../../../../pic32mx/lib/libc.a(ungetc.o)
 .debug_ranges  0x0000000000001010       0x10 /opt/microchip/xc32/v2.40/bin/bin/../../lib/gcc/pic32mx/4.8.3/../../../../pic32mx/lib/libc.a(filbuf.o)
 .debug_ranges  0x0000000000001020       0x10 /opt/microchip/xc32/v2.40/bin/bin/../../lib/gcc/pic32mx/4.8.3/../../../../pic32mx/lib/libc.a(fflush.o)
 .debug_ranges  0x0000000000001030       0x18 /opt/microchip/xc32/v2.40/bin/bin/../../lib/gcc/pic32mx/4.8.3/../../../../pic32mx/lib/libc.a(doprnt_cdfFnopsuxX.eo)
 .debug_ranges  0x0000000000001048       0x10 /opt/microchip/xc32/v2.40/bin/bin/../../lib/gcc/pic32mx/4.8.3/../../../../pic32mx/lib/libe.a(_fixunsdfdi.o)
 .debug_ranges  0x0000000000001058       0x10 /opt/microchip/xc32/v2.40/bin/bin/../../lib/gcc/pic32mx/4.8.3/../../../../pic32mx/lib/libe.a(_orderdf2.o)
 .debug_ranges  0x0000000000001068       0x10 /opt/microchip/xc32/v2.40/bin/bin/../../lib/gcc/pic32mx/4.8.3/../../../../pic32mx/lib/libe.a(_fixdfdi.o)
 .debug_ranges  0x0000000000001078       0xd8 /opt/microchip/xc32/v2.40/bin/bin/../../lib/gcc/pic32mx/4.8.3/libgcc.a(_umoddi3.o)
 .debug_ranges  0x0000000000001150       0x10 /opt/microchip/xc32/v2.40/bin/bin/../../lib/gcc/pic32mx/4.8.3/../../../../pic32mx/lib/libpic32.a(read.o)
 .debug_ranges  0x0000000000001160       0x10 /opt/microchip/xc32/v2.40/bin/bin/../../lib/gcc/pic32mx/4.8.3/../../../../pic32mx/lib/libpic32.a(write.o)
 .debug_ranges  0x0000000000001170       0x10 /opt/microchip/xc32/v2.40/bin/bin/../../lib/gcc/pic32mx/4.8.3/../../../../pic32mx/lib/libpic32.a(_mon_putc.o)

.gnu.attributes
                0x0000000000000000       0x10
 *(.gnu.attributes)
 .gnu.attributes
                0x0000000000000000       0x10 build/default/debug/config/config.o
 .gnu.attributes
                0x0000000000000010       0x10 build/default/debug/delay/delay.o
 .gnu.attributes
                0x0000000000000020       0x10 build/default/debug/fatfs/ff.o
 .gnu.attributes
                0x0000000000000030       0x10 build/default/debug/fatfs/ffsystem.o
 .gnu.attributes
                0x0000000000000040       0x10 build/default/debug/fatfs/ffunicode.o
 .gnu.attributes
                0x0000000000000050       0x10 build/default/debug/fatfs/SPIFlash.o
 .gnu.attributes
                0x0000000000000060       0x10 build/default/debug/fatfs/diskio.o
 .gnu.attributes
                0x0000000000000070       0x10 build/default/debug/net/Announce.o
 .gnu.attributes
                0x0000000000000080       0x10 build/default/debug/net/ARCFOUR.o
 .gnu.attributes
                0x0000000000000090       0x10 build/default/debug/net/ARP.o
 .gnu.attributes
                0x00000000000000a0       0x10 build/default/debug/net/AutoIP.o
 .gnu.attributes
                0x00000000000000b0       0x10 build/default/debug/net/BerkeleyAPI.o
 .gnu.attributes
                0x00000000000000c0       0x10 build/default/debug/net/BigInt.o
 .gnu.attributes
                0x00000000000000d0       0x10 build/default/debug/CustomHTTPApp.o
 .gnu.attributes
                0x00000000000000e0       0x10 build/default/debug/net/DHCP.o
 .gnu.attributes
                0x00000000000000f0       0x10 build/default/debug/net/DNS.o
 .gnu.attributes
                0x0000000000000100       0x10 build/default/debug/net/ENC28J60.o
 .gnu.attributes
                0x0000000000000110       0x10 build/default/debug/net/FTP.o
 .gnu.attributes
                0x0000000000000120       0x10 build/default/debug/net/GenericTCPServer.o
 .gnu.attributes
                0x0000000000000130       0x10 build/default/debug/net/Hashes.o
 .gnu.attributes
                0x0000000000000140       0x10 build/default/debug/net/Helpers.o
 .gnu.attributes
                0x0000000000000150       0x10 build/default/debug/net/HTTP2.o
 .gnu.attributes
                0x0000000000000160       0x10 build/default/debug/net/ICMP.o
 .gnu.attributes
                0x0000000000000170       0x10 build/default/debug/net/IP.o
 .gnu.attributes
                0x0000000000000180       0x10 build/default/debug/net/MPFS2.o
 .gnu.attributes
                0x0000000000000190       0x10 build/default/debug/MPFSImg2.o
 .gnu.attributes
                0x00000000000001a0       0x10 build/default/debug/net/NBNS.o
 .gnu.attributes
                0x00000000000001b0       0x10 build/default/debug/net/Random.o
 .gnu.attributes
                0x00000000000001c0       0x10 build/default/debug/net/Reboot.o
 .gnu.attributes
                0x00000000000001d0       0x10 build/default/debug/net/RSA.o
 .gnu.attributes
                0x00000000000001e0       0x10 build/default/debug/net/SMTP.o
 .gnu.attributes
                0x00000000000001f0       0x10 build/default/debug/net/SNTP.o
 .gnu.attributes
                0x0000000000000200       0x10 build/default/debug/net/SSL.o
 .gnu.attributes
                0x0000000000000210       0x10 build/default/debug/net/StackTsk.o
 .gnu.attributes
                0x0000000000000220       0x10 build/default/debug/net/TCP.o
 .gnu.attributes
                0x0000000000000230       0x10 build/default/debug/net/Telnet.o
 .gnu.attributes
                0x0000000000000240       0x10 build/default/debug/net/Tick.o
 .gnu.attributes
                0x0000000000000250       0x10 build/default/debug/net/UDP.o
 .gnu.attributes
                0x0000000000000260       0x10 build/default/debug/net/ZeroconfHelper.o
 .gnu.attributes
                0x0000000000000270       0x10 build/default/debug/net/ZeroconfLinkLocal.o
 .gnu.attributes
                0x0000000000000280       0x10 build/default/debug/net/ZeroconfMulticastDNS.o
 .gnu.attributes
                0x0000000000000290       0x10 build/default/debug/nvram/nvram.o
 .gnu.attributes
                0x00000000000002a0       0x10 build/default/debug/time/time.o
 .gnu.attributes
                0x00000000000002b0       0x10 build/default/debug/uart/uart.o
 .gnu.attributes
                0x00000000000002c0       0x10 build/default/debug/uart/debug_uart.o
 .gnu.attributes
                0x00000000000002d0       0x10 build/default/debug/usb/event.o
 .gnu.attributes
                0x00000000000002e0       0x10 build/default/debug/usb/usb_descriptors.o
 .gnu.attributes
                0x00000000000002f0       0x10 build/default/debug/usb/usb_device.o
 .gnu.attributes
                0x0000000000000300       0x10 build/default/debug/usb/usb_function_cdc.o
 .gnu.attributes
                0x0000000000000310       0x10 build/default/debug/main.o
 .gnu.attributes
                0x0000000000000320       0x10 build/default/debug/common.o
 .gnu.attributes
                0x0000000000000330       0x10 /opt/microchip/xc32/v2.40/bin/bin/../../lib/gcc/pic32mx/4.8.3/../../../../pic32mx/lib/libmchp_peripheral.a(read_core_timer_lib.o)
 .gnu.attributes
                0x0000000000000340       0x10 /opt/microchip/xc32/v2.40/bin/bin/../../lib/gcc/pic32mx/4.8.3/../../../../pic32mx/lib/libmchp_peripheral_32MX270F256B.a(soft_reset_lib.o)
 .gnu.attributes
                0x0000000000000350       0x10 /opt/microchip/xc32/v2.40/bin/bin/../../lib/gcc/pic32mx/4.8.3/../../../../pic32mx/lib/libmchp_peripheral_32MX270F256B.a(int_enable_interrupts_lib.o)
 .gnu.attributes
                0x0000000000000360       0x10 /opt/microchip/xc32/v2.40/bin/bin/../../lib/gcc/pic32mx/4.8.3/../../../../pic32mx/lib/libmchp_peripheral_32MX270F256B.a(int_disable_interrupts_lib.o)
 .gnu.attributes
                0x0000000000000370       0x10 /opt/microchip/xc32/v2.40/bin/bin/../../lib/gcc/pic32mx/4.8.3/../../../../pic32mx/lib/libmchp_peripheral_32MX270F256B.a(int_restore_interrupts_lib.o)
 .gnu.attributes
                0x0000000000000380       0x10 /opt/microchip/xc32/v2.40/bin/bin/../../lib/gcc/pic32mx/4.8.3/../../../../pic32mx/lib/libmchp_peripheral_32MX270F256B.a(int_enable_mv_int_lib.o)
 .gnu.attributes
                0x0000000000000390       0x10 /opt/microchip/xc32/v2.40/bin/bin/../../lib/gcc/pic32mx/4.8.3/../../../../pic32mx/lib/libmchp_peripheral_32MX270F256B.a(int_tbl_lib.o)
 .gnu.attributes
                0x00000000000003a0       0x10 /opt/microchip/xc32/v2.40/bin/bin/../../lib/gcc/pic32mx/4.8.3/../../../../pic32mx/lib/libmchp_peripheral_32MX270F256B.a(rtcc_set_time_date_lib.o)
 .gnu.attributes
                0x00000000000003b0       0x10 /opt/microchip/xc32/v2.40/bin/bin/../../lib/gcc/pic32mx/4.8.3/../../../../pic32mx/lib/libmchp_peripheral_32MX270F256B.a(nvm_erase_page_lib.o)
 .gnu.attributes
                0x00000000000003c0       0x10 /opt/microchip/xc32/v2.40/bin/bin/../../lib/gcc/pic32mx/4.8.3/../../../../pic32mx/lib/libmchp_peripheral_32MX270F256B.a(nvm_operation_lib.o)
 .gnu.attributes
                0x00000000000003d0       0x10 /opt/microchip/xc32/v2.40/bin/bin/../../lib/gcc/pic32mx/4.8.3/../../../../pic32mx/lib/libmchp_peripheral_32MX270F256B.a(nvm_write_word_lib.o)
 .gnu.attributes
                0x00000000000003e0       0x10 /opt/microchip/xc32/v2.40/bin/bin/../../lib/gcc/pic32mx/4.8.3/../../../../pic32mx/lib/libmchp_peripheral_32MX270F256B.a(_rtcc_set_time_and_date_lib.o)
 .gnu.attributes
                0x00000000000003f0       0x10 /opt/microchip/xc32/v2.40/bin/bin/../../lib/gcc/pic32mx/4.8.3/../../../../pic32mx/lib/libmchp_peripheral_32MX270F256B.a(_rtcc_wait_clock_off_lib.o)
 .gnu.attributes
                0x0000000000000400       0x10 /opt/microchip/xc32/v2.40/bin/bin/../../lib/gcc/pic32mx/4.8.3/libgcc.a(_udivdi3.o)
 .gnu.attributes
                0x0000000000000410       0x10 /opt/microchip/xc32/v2.40/bin/bin/../../lib/gcc/pic32mx/4.8.3/libgcc.a(floatunsisf.o)
 .gnu.attributes
                0x0000000000000420       0x10 /opt/microchip/xc32/v2.40/bin/bin/../../lib/gcc/pic32mx/4.8.3/../../../../pic32mx/lib/libpic32.a(default-bootstrap-exception-handler.o)
 .gnu.attributes
                0x0000000000000430       0x10 /opt/microchip/xc32/v2.40/bin/bin/../../lib/gcc/pic32mx/4.8.3/../../../../pic32mx/lib/libpic32.a(default-on-reset.o)
 .gnu.attributes
                0x0000000000000440       0x10 /opt/microchip/xc32/v2.40/bin/bin/../../lib/gcc/pic32mx/4.8.3/../../../../pic32mx/lib/libpic32.a(default-on-bootstrap.o)
 .gnu.attributes
                0x0000000000000450       0x10 /opt/microchip/xc32/v2.40/bin/bin/../../lib/gcc/pic32mx/4.8.3/../../../../pic32mx/lib/libpic32.a(xc32_uart.o)
 .gnu.attributes
                0x0000000000000460       0x10 /opt/microchip/xc32/v2.40/bin/bin/../../lib/gcc/pic32mx/4.8.3/../../../../pic32mx/lib/libpic32.a(defaultinterrupt.o)
 .gnu.attributes
                0x0000000000000470       0x10 /opt/microchip/xc32/v2.40/bin/bin/../../lib/gcc/pic32mx/4.8.3/../../../../pic32mx/lib/libc.a(atoi.o)
 .gnu.attributes
                0x0000000000000480       0x10 /opt/microchip/xc32/v2.40/bin/bin/../../lib/gcc/pic32mx/4.8.3/../../../../pic32mx/lib/libc.a(atol.o)
 .gnu.attributes
                0x0000000000000490       0x10 /opt/microchip/xc32/v2.40/bin/bin/../../lib/gcc/pic32mx/4.8.3/../../../../pic32mx/lib/libc.a(ctime.o)
 .gnu.attributes
                0x00000000000004a0       0x10 /opt/microchip/xc32/v2.40/bin/bin/../../lib/gcc/pic32mx/4.8.3/../../../../pic32mx/lib/libc.a(ctype.o)
 .gnu.attributes
                0x00000000000004b0       0x10 /opt/microchip/xc32/v2.40/bin/bin/../../lib/gcc/pic32mx/4.8.3/../../../../pic32mx/lib/libc.a(mktime.o)
 .gnu.attributes
                0x00000000000004c0       0x10 /opt/microchip/xc32/v2.40/bin/bin/../../lib/gcc/pic32mx/4.8.3/../../../../pic32mx/lib/libc.a(puts.o)
 .gnu.attributes
                0x00000000000004d0       0x10 /opt/microchip/xc32/v2.40/bin/bin/../../lib/gcc/pic32mx/4.8.3/../../../../pic32mx/lib/libc.a(rand.o)
 .gnu.attributes
                0x00000000000004e0       0x10 /opt/microchip/xc32/v2.40/bin/bin/../../lib/gcc/pic32mx/4.8.3/../../../../pic32mx/lib/libc.a(strncpy.o)
 .gnu.attributes
                0x00000000000004f0       0x10 /opt/microchip/xc32/v2.40/bin/bin/../../lib/gcc/pic32mx/4.8.3/../../../../pic32mx/lib/libc.a(printf_cdfFnopuxX.eo)
 .gnu.attributes
                0x0000000000000500       0x10 /opt/microchip/xc32/v2.40/bin/bin/../../lib/gcc/pic32mx/4.8.3/../../../../pic32mx/lib/libc.a(snprintf_cdnopuxX.eo)
 .gnu.attributes
                0x0000000000000510       0x10 /opt/microchip/xc32/v2.40/bin/bin/../../lib/gcc/pic32mx/4.8.3/../../../../pic32mx/lib/libc.a(sprintf_cdnopsuxX.eo)
 .gnu.attributes
                0x0000000000000520       0x10 /opt/microchip/xc32/v2.40/bin/bin/../../lib/gcc/pic32mx/4.8.3/../../../../pic32mx/lib/libc.a(sscanf_cdnopuxX.eo)
 .gnu.attributes
                0x0000000000000530       0x10 /opt/microchip/xc32/v2.40/bin/bin/../../lib/gcc/pic32mx/4.8.3/../../../../pic32mx/lib/libc.a(vsnprintf_cdnopuxX.eo)
 .gnu.attributes
                0x0000000000000540       0x10 /opt/microchip/xc32/v2.40/bin/bin/../../lib/gcc/pic32mx/4.8.3/../../../../pic32mx/lib/libc.a(_iob.o)
 .gnu.attributes
                0x0000000000000550       0x10 /opt/microchip/xc32/v2.40/bin/bin/../../lib/gcc/pic32mx/4.8.3/../../../../pic32mx/lib/libc.a(_fputc_simple.o)
 .gnu.attributes
                0x0000000000000560       0x10 /opt/microchip/xc32/v2.40/bin/bin/../../lib/gcc/pic32mx/4.8.3/../../../../pic32mx/lib/libc.a(doscan_cdnopuxX.eo)
 .gnu.attributes
                0x0000000000000570       0x10 /opt/microchip/xc32/v2.40/bin/bin/../../lib/gcc/pic32mx/4.8.3/../../../../pic32mx/lib/libc.a(_flsbuf_simple.o)
 .gnu.attributes
                0x0000000000000580       0x10 /opt/microchip/xc32/v2.40/bin/bin/../../lib/gcc/pic32mx/4.8.3/../../../../pic32mx/lib/libc.a(fgetc.o)
 .gnu.attributes
                0x0000000000000590       0x10 /opt/microchip/xc32/v2.40/bin/bin/../../lib/gcc/pic32mx/4.8.3/../../../../pic32mx/lib/libc.a(ctypef.o)
 .gnu.attributes
                0x00000000000005a0       0x10 /opt/microchip/xc32/v2.40/bin/bin/../../lib/gcc/pic32mx/4.8.3/../../../../pic32mx/lib/libc.a(ldpowers.o)
 .gnu.attributes
                0x00000000000005b0       0x10 /opt/microchip/xc32/v2.40/bin/bin/../../lib/gcc/pic32mx/4.8.3/../../../../pic32mx/lib/libc.a(ungetc.o)
 .gnu.attributes
                0x00000000000005c0       0x10 /opt/microchip/xc32/v2.40/bin/bin/../../lib/gcc/pic32mx/4.8.3/../../../../pic32mx/lib/libc.a(filbuf.o)
 .gnu.attributes
                0x00000000000005d0       0x10 /opt/microchip/xc32/v2.40/bin/bin/../../lib/gcc/pic32mx/4.8.3/../../../../pic32mx/lib/libc.a(fflush.o)
 .gnu.attributes
                0x00000000000005e0       0x10 /opt/microchip/xc32/v2.40/bin/bin/../../lib/gcc/pic32mx/4.8.3/../../../../pic32mx/lib/libc.a(doprnt_cdfFnopsuxX.eo)
 .gnu.attributes
                0x00000000000005f0       0x10 /opt/microchip/xc32/v2.40/bin/bin/../../lib/gcc/pic32mx/4.8.3/../../../../pic32mx/lib/libe.a(_fixunsdfdi.o)
 .gnu.attributes
                0x0000000000000600       0x10 /opt/microchip/xc32/v2.40/bin/bin/../../lib/gcc/pic32mx/4.8.3/../../../../pic32mx/lib/libe.a(_orderdf2.o)
 .gnu.attributes
                0x0000000000000610       0x10 /opt/microchip/xc32/v2.40/bin/bin/../../lib/gcc/pic32mx/4.8.3/../../../../pic32mx/lib/libe.a(_fixdfdi.o)
 .gnu.attributes
                0x0000000000000620       0x10 /opt/microchip/xc32/v2.40/bin/bin/../../lib/gcc/pic32mx/4.8.3/libgcc.a(_floatundidf.o)
 .gnu.attributes
                0x0000000000000630       0x10 /opt/microchip/xc32/v2.40/bin/bin/../../lib/gcc/pic32mx/4.8.3/libgcc.a(_umoddi3.o)
 .gnu.attributes
                0x0000000000000640       0x10 /opt/microchip/xc32/v2.40/bin/bin/../../lib/gcc/pic32mx/4.8.3/libgcc.a(floatunsidf.o)
 .gnu.attributes
                0x0000000000000650       0x10 /opt/microchip/xc32/v2.40/bin/bin/../../lib/gcc/pic32mx/4.8.3/../../../../pic32mx/lib/libpic32.a(read.o)
 .gnu.attributes
                0x0000000000000660       0x10 /opt/microchip/xc32/v2.40/bin/bin/../../lib/gcc/pic32mx/4.8.3/../../../../pic32mx/lib/libpic32.a(write.o)
 .gnu.attributes
                0x0000000000000670       0x10 /opt/microchip/xc32/v2.40/bin/bin/../../lib/gcc/pic32mx/4.8.3/../../../../pic32mx/lib/libpic32.a(_mon_putc.o)
LOAD /opt/microchip/xc32/v2.40/bin/bin/../../lib/gcc/pic32mx/4.8.3/libgcc.a
START GROUP
LOAD /opt/microchip/xc32/v2.40/bin/bin/../../lib/gcc/pic32mx/4.8.3/../../../../pic32mx/lib/libpic32.a
LOAD /opt/microchip/xc32/v2.40/bin/bin/../../lib/gcc/pic32mx/4.8.3/../../../../pic32mx/lib/libdebug.a
LOAD /opt/microchip/xc32/v2.40/bin/bin/../../lib/gcc/pic32mx/4.8.3/../../../../pic32mx/lib/libpic32.a
LOAD /opt/microchip/xc32/v2.40/bin/bin/../../lib/gcc/pic32mx/4.8.3/../../../../pic32mx/lib/libc.a
LOAD /opt/microchip/xc32/v2.40/bin/bin/../../lib/gcc/pic32mx/4.8.3/../../../../pic32mx/lib/libc.a
LOAD /opt/microchip/xc32/v2.40/bin/bin/../../lib/gcc/pic32mx/4.8.3/../../../../pic32mx/lib/libm.a
LOAD /opt/microchip/xc32/v2.40/bin/bin/../../lib/gcc/pic32mx/4.8.3/../../../../pic32mx/lib/libe.a
LOAD /opt/microchip/xc32/v2.40/bin/bin/../../lib/gcc/pic32mx/4.8.3/../../../../pic32mx/lib/libdsp.a
LOAD /opt/microchip/xc32/v2.40/bin/bin/../../lib/gcc/pic32mx/4.8.3/libgcc.a
LOAD /opt/microchip/xc32/v2.40/bin/bin/../../lib/gcc/pic32mx/4.8.3/../../../../pic32mx/lib/libpic32.a
END GROUP
LOAD /opt/microchip/xc32/v2.40/bin/bin/../../lib/gcc/pic32mx/4.8.3/libgcc.a
OUTPUT(dist/default/debug/code.debug.elf elf32-tradlittlemips)
LOAD stack
LOAD data_init

.reginfo        0x0000000000000000       0x18
 .reginfo       0x0000000000000000       0x18 /opt/microchip/xc32/v2.40/bin/bin/../../lib/gcc/pic32mx/4.8.3/../../../../pic32mx/lib/debug-exception-return.o

.stack          0x00000000a0003d40      0x400
 .stack         0x00000000a0003d40      0x400 stack

.bss            0x00000000a00017d8     0x1b94
 .bss           0x00000000a00017d8     0x1994 build/default/debug/net/TCP.o
 .bss           0x00000000a000316c      0x200 build/default/debug/fatfs/ff.o

.bss            0x00000000a000336c       0xa8
 .bss           0x00000000a000336c       0xa8 build/default/debug/net/MPFS2.o

.data           0x00000000a0003414       0xa4
 .data          0x00000000a0003414       0xa4 /opt/microchip/xc32/v2.40/bin/bin/../../lib/gcc/pic32mx/4.8.3/../../../../pic32mx/lib/libc.a(_iob.o)
                0x00000000a0003414                _Files
                0x00000000a0003418                _iob

.bss            0x00000000a0000170       0x8c
 .bss           0x00000000a0000170       0x48 /opt/microchip/xc32/v2.40/bin/bin/../../lib/gcc/pic32mx/4.8.3/../../../../pic32mx/lib/libc.a(ctime.o)
                0x00000000a00001b0                time_zone
 .bss           0x00000000a00001b8       0x44 /opt/microchip/xc32/v2.40/bin/bin/../../lib/gcc/pic32mx/4.8.3/../../../../pic32mx/lib/libc.a(_iob.o)
                0x00000000a00001b8                _sobuf
                0x00000000a00001d8                _sibuf
                0x00000000a00001f8                _outdone

.bss            0x00000000a00034b8       0x48
 .bss           0x00000000a00034b8       0x30 build/default/debug/net/DHCP.o
 .bss           0x00000000a00034e8       0x18 build/default/debug/net/ARP.o

.bss            0x00000000a0003500       0x1c
 .bss           0x00000000a0003500       0x10 /opt/microchip/xc32/v2.40/bin/bin/../../lib/gcc/pic32mx/4.8.3/../../../../pic32mx/lib/libc.a(rand.o)
 .bss           0x00000000a0003510        0xc build/default/debug/net/DNS.o

.data           0x00000000a000351c        0x8
 .data          0x00000000a000351c        0x8 /opt/microchip/xc32/v2.40/bin/bin/../../lib/gcc/pic32mx/4.8.3/../../../../pic32mx/lib/libmchp_peripheral_32MX270F256B.a(_rtcc_wait_clock_off_lib.o)
                0x00000000a000351c                _RtccWaitClkStepSz
                0x00000000a0003520                _RtccWaitClkSteps

.bss            0x00000000a000016c        0x4
 .bss           0x00000000a000016c        0x4 /opt/microchip/xc32/v2.40/bin/bin/../../lib/gcc/pic32mx/4.8.3/../../../../pic32mx/lib/libc.a(doscan_cdnopuxX.eo)

.bss%z1         0x0000000000000000        0x0
 .bss           0x0000000000000000        0x0 /opt/microchip/xc32/v2.40/bin/bin/../../lib/gcc/pic32mx/4.8.3/../../../../pic32mx/lib/libm.a(litodp.o)

.data%z2        0x0000000000000000        0x0
 .data          0x0000000000000000        0x0 /opt/microchip/xc32/v2.40/bin/bin/../../lib/gcc/pic32mx/4.8.3/../../../../pic32mx/lib/libm.a(litodp.o)

.bss%z3         0x0000000000000000        0x0
 .bss           0x0000000000000000        0x0 /opt/microchip/xc32/v2.40/bin/bin/../../lib/gcc/pic32mx/4.8.3/../../../../pic32mx/lib/libpic32.a(_mon_putc.o)

.data%z4        0x0000000000000000        0x0
 .data          0x0000000000000000        0x0 /opt/microchip/xc32/v2.40/bin/bin/../../lib/gcc/pic32mx/4.8.3/../../../../pic32mx/lib/libpic32.a(_mon_putc.o)

.bss%z5         0x0000000000000000        0x0
 .bss           0x0000000000000000        0x0 /opt/microchip/xc32/v2.40/bin/bin/../../lib/gcc/pic32mx/4.8.3/../../../../pic32mx/lib/libpic32.a(write.o)

.data%z6        0x0000000000000000        0x0
 .data          0x0000000000000000        0x0 /opt/microchip/xc32/v2.40/bin/bin/../../lib/gcc/pic32mx/4.8.3/../../../../pic32mx/lib/libpic32.a(write.o)

.bss%z7         0x0000000000000000        0x0
 .bss           0x0000000000000000        0x0 /opt/microchip/xc32/v2.40/bin/bin/../../lib/gcc/pic32mx/4.8.3/../../../../pic32mx/lib/libpic32.a(read.o)

.data%z8        0x0000000000000000        0x0
 .data          0x0000000000000000        0x0 /opt/microchip/xc32/v2.40/bin/bin/../../lib/gcc/pic32mx/4.8.3/../../../../pic32mx/lib/libpic32.a(read.o)

.bss%z9         0x0000000000000000        0x0
 .bss           0x0000000000000000        0x0 /opt/microchip/xc32/v2.40/bin/bin/../../lib/gcc/pic32mx/4.8.3/libgcc.a(floatunsidf.o)

.data%z10       0x0000000000000000        0x0
 .data          0x0000000000000000        0x0 /opt/microchip/xc32/v2.40/bin/bin/../../lib/gcc/pic32mx/4.8.3/libgcc.a(floatunsidf.o)

.bss%z11        0x0000000000000000        0x0
 .bss           0x0000000000000000        0x0 /opt/microchip/xc32/v2.40/bin/bin/../../lib/gcc/pic32mx/4.8.3/libgcc.a(_umoddi3.o)

.data%z12       0x0000000000000000        0x0
 .data          0x0000000000000000        0x0 /opt/microchip/xc32/v2.40/bin/bin/../../lib/gcc/pic32mx/4.8.3/libgcc.a(_umoddi3.o)

.bss%z13        0x0000000000000000        0x0
 .bss           0x0000000000000000        0x0 /opt/microchip/xc32/v2.40/bin/bin/../../lib/gcc/pic32mx/4.8.3/libgcc.a(_floatundidf.o)

.data%z14       0x0000000000000000        0x0
 .data          0x0000000000000000        0x0 /opt/microchip/xc32/v2.40/bin/bin/../../lib/gcc/pic32mx/4.8.3/libgcc.a(_floatundidf.o)

.bss%z15        0x0000000000000000        0x0
 .bss           0x0000000000000000        0x0 /opt/microchip/xc32/v2.40/bin/bin/../../lib/gcc/pic32mx/4.8.3/../../../../pic32mx/lib/libe.a(_fixdfdi.o)

.data%z16       0x0000000000000000        0x0
 .data          0x0000000000000000        0x0 /opt/microchip/xc32/v2.40/bin/bin/../../lib/gcc/pic32mx/4.8.3/../../../../pic32mx/lib/libe.a(_fixdfdi.o)

.bss%z17        0x0000000000000000        0x0
 .bss           0x0000000000000000        0x0 /opt/microchip/xc32/v2.40/bin/bin/../../lib/gcc/pic32mx/4.8.3/../../../../pic32mx/lib/libe.a(_orderdf2.o)

.data%z18       0x0000000000000000        0x0
 .data          0x0000000000000000        0x0 /opt/microchip/xc32/v2.40/bin/bin/../../lib/gcc/pic32mx/4.8.3/../../../../pic32mx/lib/libe.a(_orderdf2.o)

.bss%z19        0x0000000000000000        0x0
 .bss           0x0000000000000000        0x0 /opt/microchip/xc32/v2.40/bin/bin/../../lib/gcc/pic32mx/4.8.3/../../../../pic32mx/lib/libe.a(_fixunsdfdi.o)

.data%z20       0x0000000000000000        0x0
 .data          0x0000000000000000        0x0 /opt/microchip/xc32/v2.40/bin/bin/../../lib/gcc/pic32mx/4.8.3/../../../../pic32mx/lib/libe.a(_fixunsdfdi.o)

.bss%z21        0x0000000000000000        0x0
 .bss           0x0000000000000000        0x0 /opt/microchip/xc32/v2.40/bin/bin/../../lib/gcc/pic32mx/4.8.3/../../../../pic32mx/lib/libm.a(sitofp.o)

.data%z22       0x0000000000000000        0x0
 .data          0x0000000000000000        0x0 /opt/microchip/xc32/v2.40/bin/bin/../../lib/gcc/pic32mx/4.8.3/../../../../pic32mx/lib/libm.a(sitofp.o)

.bss%z23        0x0000000000000000        0x0
 .bss           0x0000000000000000        0x0 /opt/microchip/xc32/v2.40/bin/bin/../../lib/gcc/pic32mx/4.8.3/../../../../pic32mx/lib/libm.a(fptodp.o)

.data%z24       0x0000000000000000        0x0
 .data          0x0000000000000000        0x0 /opt/microchip/xc32/v2.40/bin/bin/../../lib/gcc/pic32mx/4.8.3/../../../../pic32mx/lib/libm.a(fptodp.o)

.bss%z25        0x0000000000000000        0x0
 .bss           0x0000000000000000        0x0 /opt/microchip/xc32/v2.40/bin/bin/../../lib/gcc/pic32mx/4.8.3/../../../../pic32mx/lib/libm.a(fp32subadd.o)

.data%z26       0x0000000000000000        0x0
 .data          0x0000000000000000        0x0 /opt/microchip/xc32/v2.40/bin/bin/../../lib/gcc/pic32mx/4.8.3/../../../../pic32mx/lib/libm.a(fp32subadd.o)

.bss%z27        0x0000000000000000        0x0
 .bss           0x0000000000000000        0x0 /opt/microchip/xc32/v2.40/bin/bin/../../lib/gcc/pic32mx/4.8.3/../../../../pic32mx/lib/libm.a(fp32div.o)

.data%z28       0x0000000000000000        0x0
 .data          0x0000000000000000        0x0 /opt/microchip/xc32/v2.40/bin/bin/../../lib/gcc/pic32mx/4.8.3/../../../../pic32mx/lib/libm.a(fp32div.o)

.bss%z29        0x0000000000000000        0x0
 .bss           0x0000000000000000        0x0 /opt/microchip/xc32/v2.40/bin/bin/../../lib/gcc/pic32mx/4.8.3/../../../../pic32mx/lib/libm.a(dpcmp.o)

.data%z30       0x0000000000000000        0x0
 .data          0x0000000000000000        0x0 /opt/microchip/xc32/v2.40/bin/bin/../../lib/gcc/pic32mx/4.8.3/../../../../pic32mx/lib/libm.a(dpcmp.o)

.bss%z31        0x0000000000000000        0x0
 .bss           0x0000000000000000        0x0 /opt/microchip/xc32/v2.40/bin/bin/../../lib/gcc/pic32mx/4.8.3/../../../../pic32mx/lib/libm.a(dp32subadd.o)

.data%z32       0x0000000000000000        0x0
 .data          0x0000000000000000        0x0 /opt/microchip/xc32/v2.40/bin/bin/../../lib/gcc/pic32mx/4.8.3/../../../../pic32mx/lib/libm.a(dp32subadd.o)

.bss%z33        0x0000000000000000        0x0
 .bss           0x0000000000000000        0x0 /opt/microchip/xc32/v2.40/bin/bin/../../lib/gcc/pic32mx/4.8.3/../../../../pic32mx/lib/libm.a(dp32mul.o)

.data%z34       0x0000000000000000        0x0
 .data          0x0000000000000000        0x0 /opt/microchip/xc32/v2.40/bin/bin/../../lib/gcc/pic32mx/4.8.3/../../../../pic32mx/lib/libm.a(dp32mul.o)

.bss%z35        0x0000000000000000        0x0
 .bss           0x0000000000000000        0x0 /opt/microchip/xc32/v2.40/bin/bin/../../lib/gcc/pic32mx/4.8.3/../../../../pic32mx/lib/libm.a(dp32div.o)

.data%z36       0x0000000000000000        0x0
 .data          0x0000000000000000        0x0 /opt/microchip/xc32/v2.40/bin/bin/../../lib/gcc/pic32mx/4.8.3/../../../../pic32mx/lib/libm.a(dp32div.o)

.bss%z37        0x0000000000000000        0x0
 .bss           0x0000000000000000        0x0 /opt/microchip/xc32/v2.40/bin/bin/../../lib/gcc/pic32mx/4.8.3/../../../../pic32mx/lib/libm.a(dpfrexp.o)

.data%z38       0x0000000000000000        0x0
 .data          0x0000000000000000        0x0 /opt/microchip/xc32/v2.40/bin/bin/../../lib/gcc/pic32mx/4.8.3/../../../../pic32mx/lib/libm.a(dpfrexp.o)

.bss%z39        0x0000000000000000        0x0
 .bss           0x0000000000000000        0x0 /opt/microchip/xc32/v2.40/bin/bin/../../lib/gcc/pic32mx/4.8.3/../../../../pic32mx/lib/libc.a(doprnt_cdfFnopsuxX.eo)

.data%z40       0x0000000000000000        0x0
 .data          0x0000000000000000        0x0 /opt/microchip/xc32/v2.40/bin/bin/../../lib/gcc/pic32mx/4.8.3/../../../../pic32mx/lib/libc.a(doprnt_cdfFnopsuxX.eo)

.bss%z41        0x0000000000000000        0x0
 .bss           0x0000000000000000        0x0 /opt/microchip/xc32/v2.40/bin/bin/../../lib/gcc/pic32mx/4.8.3/../../../../pic32mx/lib/libc.a(fflush.o)

.data%z42       0x0000000000000000        0x0
 .data          0x0000000000000000        0x0 /opt/microchip/xc32/v2.40/bin/bin/../../lib/gcc/pic32mx/4.8.3/../../../../pic32mx/lib/libc.a(fflush.o)

.bss%z43        0x0000000000000000        0x0
 .bss           0x0000000000000000        0x0 /opt/microchip/xc32/v2.40/bin/bin/../../lib/gcc/pic32mx/4.8.3/../../../../pic32mx/lib/libc.a(filbuf.o)

.data%z44       0x0000000000000000        0x0
 .data          0x0000000000000000        0x0 /opt/microchip/xc32/v2.40/bin/bin/../../lib/gcc/pic32mx/4.8.3/../../../../pic32mx/lib/libc.a(filbuf.o)

.bss%z45        0x0000000000000000        0x0
 .bss           0x0000000000000000        0x0 /opt/microchip/xc32/v2.40/bin/bin/../../lib/gcc/pic32mx/4.8.3/../../../../pic32mx/lib/libc.a(ungetc.o)

.data%z46       0x0000000000000000        0x0
 .data          0x0000000000000000        0x0 /opt/microchip/xc32/v2.40/bin/bin/../../lib/gcc/pic32mx/4.8.3/../../../../pic32mx/lib/libc.a(ungetc.o)

.bss%z47        0x0000000000000000        0x0
 .bss           0x0000000000000000        0x0 /opt/microchip/xc32/v2.40/bin/bin/../../lib/gcc/pic32mx/4.8.3/../../../../pic32mx/lib/libc.a(ldpowers.o)

.data%z48       0x0000000000000000        0x0
 .data          0x0000000000000000        0x0 /opt/microchip/xc32/v2.40/bin/bin/../../lib/gcc/pic32mx/4.8.3/../../../../pic32mx/lib/libc.a(ldpowers.o)

.bss%z49        0x0000000000000000        0x0
 .bss           0x0000000000000000        0x0 /opt/microchip/xc32/v2.40/bin/bin/../../lib/gcc/pic32mx/4.8.3/../../../../pic32mx/lib/libc.a(ctypef.o)

.data%z50       0x0000000000000000        0x0
 .data          0x0000000000000000        0x0 /opt/microchip/xc32/v2.40/bin/bin/../../lib/gcc/pic32mx/4.8.3/../../../../pic32mx/lib/libc.a(ctypef.o)

.bss%z51        0x0000000000000000        0x0
 .bss           0x0000000000000000        0x0 /opt/microchip/xc32/v2.40/bin/bin/../../lib/gcc/pic32mx/4.8.3/../../../../pic32mx/lib/libc.a(fgetc.o)

.data%z52       0x0000000000000000        0x0
 .data          0x0000000000000000        0x0 /opt/microchip/xc32/v2.40/bin/bin/../../lib/gcc/pic32mx/4.8.3/../../../../pic32mx/lib/libc.a(fgetc.o)

.bss%z53        0x0000000000000000        0x0
 .bss           0x0000000000000000        0x0 /opt/microchip/xc32/v2.40/bin/bin/../../lib/gcc/pic32mx/4.8.3/../../../../pic32mx/lib/libc.a(_flsbuf_simple.o)

.data%z54       0x0000000000000000        0x0
 .data          0x0000000000000000        0x0 /opt/microchip/xc32/v2.40/bin/bin/../../lib/gcc/pic32mx/4.8.3/../../../../pic32mx/lib/libc.a(_flsbuf_simple.o)

.data%z55       0x0000000000000000        0x0
 .data          0x0000000000000000        0x0 /opt/microchip/xc32/v2.40/bin/bin/../../lib/gcc/pic32mx/4.8.3/../../../../pic32mx/lib/libc.a(doscan_cdnopuxX.eo)

.bss%z56        0x0000000000000000        0x0
 .bss           0x0000000000000000        0x0 /opt/microchip/xc32/v2.40/bin/bin/../../lib/gcc/pic32mx/4.8.3/../../../../pic32mx/lib/libc.a(_fputc_simple.o)

.data%z57       0x0000000000000000        0x0
 .data          0x0000000000000000        0x0 /opt/microchip/xc32/v2.40/bin/bin/../../lib/gcc/pic32mx/4.8.3/../../../../pic32mx/lib/libc.a(_fputc_simple.o)

.bss%z58        0x0000000000000000        0x0
 .bss           0x0000000000000000        0x0 /opt/microchip/xc32/v2.40/bin/bin/../../lib/gcc/pic32mx/4.8.3/../../../../pic32mx/lib/libc.a(vsnprintf_cdnopuxX.eo)

.data%z59       0x0000000000000000        0x0
 .data          0x0000000000000000        0x0 /opt/microchip/xc32/v2.40/bin/bin/../../lib/gcc/pic32mx/4.8.3/../../../../pic32mx/lib/libc.a(vsnprintf_cdnopuxX.eo)

.bss%z60        0x0000000000000000        0x0
 .bss           0x0000000000000000        0x0 /opt/microchip/xc32/v2.40/bin/bin/../../lib/gcc/pic32mx/4.8.3/../../../../pic32mx/lib/libc.a(sscanf_cdnopuxX.eo)

.data%z61       0x0000000000000000        0x0
 .data          0x0000000000000000        0x0 /opt/microchip/xc32/v2.40/bin/bin/../../lib/gcc/pic32mx/4.8.3/../../../../pic32mx/lib/libc.a(sscanf_cdnopuxX.eo)

.bss%z62        0x0000000000000000        0x0
 .bss           0x0000000000000000        0x0 /opt/microchip/xc32/v2.40/bin/bin/../../lib/gcc/pic32mx/4.8.3/../../../../pic32mx/lib/libc.a(sprintf_cdnopsuxX.eo)

.data%z63       0x0000000000000000        0x0
 .data          0x0000000000000000        0x0 /opt/microchip/xc32/v2.40/bin/bin/../../lib/gcc/pic32mx/4.8.3/../../../../pic32mx/lib/libc.a(sprintf_cdnopsuxX.eo)

.bss%z64        0x0000000000000000        0x0
 .bss           0x0000000000000000        0x0 /opt/microchip/xc32/v2.40/bin/bin/../../lib/gcc/pic32mx/4.8.3/../../../../pic32mx/lib/libc.a(snprintf_cdnopuxX.eo)

.data%z65       0x0000000000000000        0x0
 .data          0x0000000000000000        0x0 /opt/microchip/xc32/v2.40/bin/bin/../../lib/gcc/pic32mx/4.8.3/../../../../pic32mx/lib/libc.a(snprintf_cdnopuxX.eo)

.bss%z66        0x0000000000000000        0x0
 .bss           0x0000000000000000        0x0 /opt/microchip/xc32/v2.40/bin/bin/../../lib/gcc/pic32mx/4.8.3/../../../../pic32mx/lib/libc.a(printf_cdfFnopuxX.eo)

.data%z67       0x0000000000000000        0x0
 .data          0x0000000000000000        0x0 /opt/microchip/xc32/v2.40/bin/bin/../../lib/gcc/pic32mx/4.8.3/../../../../pic32mx/lib/libc.a(printf_cdfFnopuxX.eo)

.bss%z68        0x0000000000000000        0x0
 .bss           0x0000000000000000        0x0 /opt/microchip/xc32/v2.40/bin/bin/../../lib/gcc/pic32mx/4.8.3/../../../../pic32mx/lib/libc.a(strncpy.o)

.data%z69       0x0000000000000000        0x0
 .data          0x0000000000000000        0x0 /opt/microchip/xc32/v2.40/bin/bin/../../lib/gcc/pic32mx/4.8.3/../../../../pic32mx/lib/libc.a(strncpy.o)

.data%z70       0x0000000000000000        0x0
 .data          0x0000000000000000        0x0 /opt/microchip/xc32/v2.40/bin/bin/../../lib/gcc/pic32mx/4.8.3/../../../../pic32mx/lib/libc.a(rand.o)

.bss%z71        0x0000000000000000        0x0
 .bss           0x0000000000000000        0x0 /opt/microchip/xc32/v2.40/bin/bin/../../lib/gcc/pic32mx/4.8.3/../../../../pic32mx/lib/libc.a(puts.o)

.data%z72       0x0000000000000000        0x0
 .data          0x0000000000000000        0x0 /opt/microchip/xc32/v2.40/bin/bin/../../lib/gcc/pic32mx/4.8.3/../../../../pic32mx/lib/libc.a(puts.o)

.bss%z73        0x0000000000000000        0x0
 .bss           0x0000000000000000        0x0 /opt/microchip/xc32/v2.40/bin/bin/../../lib/gcc/pic32mx/4.8.3/../../../../pic32mx/lib/libc.a(mktime.o)

.data%z74       0x0000000000000000        0x0
 .data          0x0000000000000000        0x0 /opt/microchip/xc32/v2.40/bin/bin/../../lib/gcc/pic32mx/4.8.3/../../../../pic32mx/lib/libc.a(mktime.o)

.bss%z75        0x0000000000000000        0x0
 .bss           0x0000000000000000        0x0 /opt/microchip/xc32/v2.40/bin/bin/../../lib/gcc/pic32mx/4.8.3/../../../../pic32mx/lib/libc.a(ctype.o)

.data%z76       0x0000000000000000        0x0
 .data          0x0000000000000000        0x0 /opt/microchip/xc32/v2.40/bin/bin/../../lib/gcc/pic32mx/4.8.3/../../../../pic32mx/lib/libc.a(ctype.o)

.data%z77       0x0000000000000000        0x0
 .data          0x0000000000000000        0x0 /opt/microchip/xc32/v2.40/bin/bin/../../lib/gcc/pic32mx/4.8.3/../../../../pic32mx/lib/libc.a(ctime.o)

.bss%z78        0x0000000000000000        0x0
 .bss           0x0000000000000000        0x0 /opt/microchip/xc32/v2.40/bin/bin/../../lib/gcc/pic32mx/4.8.3/../../../../pic32mx/lib/libc.a(atol.o)

.data%z79       0x0000000000000000        0x0
 .data          0x0000000000000000        0x0 /opt/microchip/xc32/v2.40/bin/bin/../../lib/gcc/pic32mx/4.8.3/../../../../pic32mx/lib/libc.a(atol.o)

.bss%z80        0x0000000000000000        0x0
 .bss           0x0000000000000000        0x0 /opt/microchip/xc32/v2.40/bin/bin/../../lib/gcc/pic32mx/4.8.3/../../../../pic32mx/lib/libc.a(atoi.o)

.data%z81       0x0000000000000000        0x0
 .data          0x0000000000000000        0x0 /opt/microchip/xc32/v2.40/bin/bin/../../lib/gcc/pic32mx/4.8.3/../../../../pic32mx/lib/libc.a(atoi.o)

.bss%z82        0x0000000000000000        0x0
 .bss           0x0000000000000000        0x0 /opt/microchip/xc32/v2.40/bin/bin/../../lib/gcc/pic32mx/4.8.3/../../../../pic32mx/lib/libpic32.a(defaultinterrupt.o)

.data%z83       0x0000000000000000        0x0
 .data          0x0000000000000000        0x0 /opt/microchip/xc32/v2.40/bin/bin/../../lib/gcc/pic32mx/4.8.3/../../../../pic32mx/lib/libpic32.a(defaultinterrupt.o)

.bss%z84        0x0000000000000000        0x0
 .bss           0x0000000000000000        0x0 /opt/microchip/xc32/v2.40/bin/bin/../../lib/gcc/pic32mx/4.8.3/../../../../pic32mx/lib/libpic32.a(vector43.o)

.data%z85       0x0000000000000000        0x0
 .data          0x0000000000000000        0x0 /opt/microchip/xc32/v2.40/bin/bin/../../lib/gcc/pic32mx/4.8.3/../../../../pic32mx/lib/libpic32.a(vector43.o)

.bss%z86        0x0000000000000000        0x0
 .bss           0x0000000000000000        0x0 /opt/microchip/xc32/v2.40/bin/bin/../../lib/gcc/pic32mx/4.8.3/../../../../pic32mx/lib/libpic32.a(vector42.o)

.data%z87       0x0000000000000000        0x0
 .data          0x0000000000000000        0x0 /opt/microchip/xc32/v2.40/bin/bin/../../lib/gcc/pic32mx/4.8.3/../../../../pic32mx/lib/libpic32.a(vector42.o)

.bss%z88        0x0000000000000000        0x0
 .bss           0x0000000000000000        0x0 /opt/microchip/xc32/v2.40/bin/bin/../../lib/gcc/pic32mx/4.8.3/../../../../pic32mx/lib/libpic32.a(vector41.o)

.data%z89       0x0000000000000000        0x0
 .data          0x0000000000000000        0x0 /opt/microchip/xc32/v2.40/bin/bin/../../lib/gcc/pic32mx/4.8.3/../../../../pic32mx/lib/libpic32.a(vector41.o)

.bss%z90        0x0000000000000000        0x0
 .bss           0x0000000000000000        0x0 /opt/microchip/xc32/v2.40/bin/bin/../../lib/gcc/pic32mx/4.8.3/../../../../pic32mx/lib/libpic32.a(vector40.o)

.data%z91       0x0000000000000000        0x0
 .data          0x0000000000000000        0x0 /opt/microchip/xc32/v2.40/bin/bin/../../lib/gcc/pic32mx/4.8.3/../../../../pic32mx/lib/libpic32.a(vector40.o)

.bss%z92        0x0000000000000000        0x0
 .bss           0x0000000000000000        0x0 /opt/microchip/xc32/v2.40/bin/bin/../../lib/gcc/pic32mx/4.8.3/../../../../pic32mx/lib/libpic32.a(vector39.o)

.data%z93       0x0000000000000000        0x0
 .data          0x0000000000000000        0x0 /opt/microchip/xc32/v2.40/bin/bin/../../lib/gcc/pic32mx/4.8.3/../../../../pic32mx/lib/libpic32.a(vector39.o)

.bss%z94        0x0000000000000000        0x0
 .bss           0x0000000000000000        0x0 /opt/microchip/xc32/v2.40/bin/bin/../../lib/gcc/pic32mx/4.8.3/../../../../pic32mx/lib/libpic32.a(vector38.o)

.data%z95       0x0000000000000000        0x0
 .data          0x0000000000000000        0x0 /opt/microchip/xc32/v2.40/bin/bin/../../lib/gcc/pic32mx/4.8.3/../../../../pic32mx/lib/libpic32.a(vector38.o)

.bss%z96        0x0000000000000000        0x0
 .bss           0x0000000000000000        0x0 /opt/microchip/xc32/v2.40/bin/bin/../../lib/gcc/pic32mx/4.8.3/../../../../pic32mx/lib/libpic32.a(vector36.o)

.data%z97       0x0000000000000000        0x0
 .data          0x0000000000000000        0x0 /opt/microchip/xc32/v2.40/bin/bin/../../lib/gcc/pic32mx/4.8.3/../../../../pic32mx/lib/libpic32.a(vector36.o)

.bss%z98        0x0000000000000000        0x0
 .bss           0x0000000000000000        0x0 /opt/microchip/xc32/v2.40/bin/bin/../../lib/gcc/pic32mx/4.8.3/../../../../pic32mx/lib/libpic32.a(vector35.o)

.data%z99       0x0000000000000000        0x0
 .data          0x0000000000000000        0x0 /opt/microchip/xc32/v2.40/bin/bin/../../lib/gcc/pic32mx/4.8.3/../../../../pic32mx/lib/libpic32.a(vector35.o)

.bss%z100       0x0000000000000000        0x0
 .bss           0x0000000000000000        0x0 /opt/microchip/xc32/v2.40/bin/bin/../../lib/gcc/pic32mx/4.8.3/../../../../pic32mx/lib/libpic32.a(vector34.o)

.data%z101      0x0000000000000000        0x0
 .data          0x0000000000000000        0x0 /opt/microchip/xc32/v2.40/bin/bin/../../lib/gcc/pic32mx/4.8.3/../../../../pic32mx/lib/libpic32.a(vector34.o)

.bss%z102       0x0000000000000000        0x0
 .bss           0x0000000000000000        0x0 /opt/microchip/xc32/v2.40/bin/bin/../../lib/gcc/pic32mx/4.8.3/../../../../pic32mx/lib/libpic32.a(vector33.o)

.data%z103      0x0000000000000000        0x0
 .data          0x0000000000000000        0x0 /opt/microchip/xc32/v2.40/bin/bin/../../lib/gcc/pic32mx/4.8.3/../../../../pic32mx/lib/libpic32.a(vector33.o)

.bss%z104       0x0000000000000000        0x0
 .bss           0x0000000000000000        0x0 /opt/microchip/xc32/v2.40/bin/bin/../../lib/gcc/pic32mx/4.8.3/../../../../pic32mx/lib/libpic32.a(vector31.o)

.data%z105      0x0000000000000000        0x0
 .data          0x0000000000000000        0x0 /opt/microchip/xc32/v2.40/bin/bin/../../lib/gcc/pic32mx/4.8.3/../../../../pic32mx/lib/libpic32.a(vector31.o)

.bss%z106       0x0000000000000000        0x0
 .bss           0x0000000000000000        0x0 /opt/microchip/xc32/v2.40/bin/bin/../../lib/gcc/pic32mx/4.8.3/../../../../pic32mx/lib/libpic32.a(vector29.o)

.data%z107      0x0000000000000000        0x0
 .data          0x0000000000000000        0x0 /opt/microchip/xc32/v2.40/bin/bin/../../lib/gcc/pic32mx/4.8.3/../../../../pic32mx/lib/libpic32.a(vector29.o)

.bss%z108       0x0000000000000000        0x0
 .bss           0x0000000000000000        0x0 /opt/microchip/xc32/v2.40/bin/bin/../../lib/gcc/pic32mx/4.8.3/../../../../pic32mx/lib/libpic32.a(vector28.o)

.data%z109      0x0000000000000000        0x0
 .data          0x0000000000000000        0x0 /opt/microchip/xc32/v2.40/bin/bin/../../lib/gcc/pic32mx/4.8.3/../../../../pic32mx/lib/libpic32.a(vector28.o)

.bss%z110       0x0000000000000000        0x0
 .bss           0x0000000000000000        0x0 /opt/microchip/xc32/v2.40/bin/bin/../../lib/gcc/pic32mx/4.8.3/../../../../pic32mx/lib/libpic32.a(vector27.o)

.data%z111      0x0000000000000000        0x0
 .data          0x0000000000000000        0x0 /opt/microchip/xc32/v2.40/bin/bin/../../lib/gcc/pic32mx/4.8.3/../../../../pic32mx/lib/libpic32.a(vector27.o)

.bss%z112       0x0000000000000000        0x0
 .bss           0x0000000000000000        0x0 /opt/microchip/xc32/v2.40/bin/bin/../../lib/gcc/pic32mx/4.8.3/../../../../pic32mx/lib/libpic32.a(vector26.o)

.data%z113      0x0000000000000000        0x0
 .data          0x0000000000000000        0x0 /opt/microchip/xc32/v2.40/bin/bin/../../lib/gcc/pic32mx/4.8.3/../../../../pic32mx/lib/libpic32.a(vector26.o)

.bss%z114       0x0000000000000000        0x0
 .bss           0x0000000000000000        0x0 /opt/microchip/xc32/v2.40/bin/bin/../../lib/gcc/pic32mx/4.8.3/../../../../pic32mx/lib/libpic32.a(vector25.o)

.data%z115      0x0000000000000000        0x0
 .data          0x0000000000000000        0x0 /opt/microchip/xc32/v2.40/bin/bin/../../lib/gcc/pic32mx/4.8.3/../../../../pic32mx/lib/libpic32.a(vector25.o)

.bss%z116       0x0000000000000000        0x0
 .bss           0x0000000000000000        0x0 /opt/microchip/xc32/v2.40/bin/bin/../../lib/gcc/pic32mx/4.8.3/../../../../pic32mx/lib/libpic32.a(vector24.o)

.data%z117      0x0000000000000000        0x0
 .data          0x0000000000000000        0x0 /opt/microchip/xc32/v2.40/bin/bin/../../lib/gcc/pic32mx/4.8.3/../../../../pic32mx/lib/libpic32.a(vector24.o)

.bss%z118       0x0000000000000000        0x0
 .bss           0x0000000000000000        0x0 /opt/microchip/xc32/v2.40/bin/bin/../../lib/gcc/pic32mx/4.8.3/../../../../pic32mx/lib/libpic32.a(vector23.o)

.data%z119      0x0000000000000000        0x0
 .data          0x0000000000000000        0x0 /opt/microchip/xc32/v2.40/bin/bin/../../lib/gcc/pic32mx/4.8.3/../../../../pic32mx/lib/libpic32.a(vector23.o)

.bss%z120       0x0000000000000000        0x0
 .bss           0x0000000000000000        0x0 /opt/microchip/xc32/v2.40/bin/bin/../../lib/gcc/pic32mx/4.8.3/../../../../pic32mx/lib/libpic32.a(vector22.o)

.data%z121      0x0000000000000000        0x0
 .data          0x0000000000000000        0x0 /opt/microchip/xc32/v2.40/bin/bin/../../lib/gcc/pic32mx/4.8.3/../../../../pic32mx/lib/libpic32.a(vector22.o)

.bss%z122       0x0000000000000000        0x0
 .bss           0x0000000000000000        0x0 /opt/microchip/xc32/v2.40/bin/bin/../../lib/gcc/pic32mx/4.8.3/../../../../pic32mx/lib/libpic32.a(vector21.o)

.data%z123      0x0000000000000000        0x0
 .data          0x0000000000000000        0x0 /opt/microchip/xc32/v2.40/bin/bin/../../lib/gcc/pic32mx/4.8.3/../../../../pic32mx/lib/libpic32.a(vector21.o)

.bss%z124       0x0000000000000000        0x0
 .bss           0x0000000000000000        0x0 /opt/microchip/xc32/v2.40/bin/bin/../../lib/gcc/pic32mx/4.8.3/../../../../pic32mx/lib/libpic32.a(vector20.o)

.data%z125      0x0000000000000000        0x0
 .data          0x0000000000000000        0x0 /opt/microchip/xc32/v2.40/bin/bin/../../lib/gcc/pic32mx/4.8.3/../../../../pic32mx/lib/libpic32.a(vector20.o)

.bss%z126       0x0000000000000000        0x0
 .bss           0x0000000000000000        0x0 /opt/microchip/xc32/v2.40/bin/bin/../../lib/gcc/pic32mx/4.8.3/../../../../pic32mx/lib/libpic32.a(vector19.o)

.data%z127      0x0000000000000000        0x0
 .data          0x0000000000000000        0x0 /opt/microchip/xc32/v2.40/bin/bin/../../lib/gcc/pic32mx/4.8.3/../../../../pic32mx/lib/libpic32.a(vector19.o)

.bss%z128       0x0000000000000000        0x0
 .bss           0x0000000000000000        0x0 /opt/microchip/xc32/v2.40/bin/bin/../../lib/gcc/pic32mx/4.8.3/../../../../pic32mx/lib/libpic32.a(vector18.o)

.data%z129      0x0000000000000000        0x0
 .data          0x0000000000000000        0x0 /opt/microchip/xc32/v2.40/bin/bin/../../lib/gcc/pic32mx/4.8.3/../../../../pic32mx/lib/libpic32.a(vector18.o)

.bss%z130       0x0000000000000000        0x0
 .bss           0x0000000000000000        0x0 /opt/microchip/xc32/v2.40/bin/bin/../../lib/gcc/pic32mx/4.8.3/../../../../pic32mx/lib/libpic32.a(vector17.o)

.data%z131      0x0000000000000000        0x0
 .data          0x0000000000000000        0x0 /opt/microchip/xc32/v2.40/bin/bin/../../lib/gcc/pic32mx/4.8.3/../../../../pic32mx/lib/libpic32.a(vector17.o)

.bss%z132       0x0000000000000000        0x0
 .bss           0x0000000000000000        0x0 /opt/microchip/xc32/v2.40/bin/bin/../../lib/gcc/pic32mx/4.8.3/../../../../pic32mx/lib/libpic32.a(vector16.o)

.data%z133      0x0000000000000000        0x0
 .data          0x0000000000000000        0x0 /opt/microchip/xc32/v2.40/bin/bin/../../lib/gcc/pic32mx/4.8.3/../../../../pic32mx/lib/libpic32.a(vector16.o)

.bss%z134       0x0000000000000000        0x0
 .bss           0x0000000000000000        0x0 /opt/microchip/xc32/v2.40/bin/bin/../../lib/gcc/pic32mx/4.8.3/../../../../pic32mx/lib/libpic32.a(vector15.o)

.data%z135      0x0000000000000000        0x0
 .data          0x0000000000000000        0x0 /opt/microchip/xc32/v2.40/bin/bin/../../lib/gcc/pic32mx/4.8.3/../../../../pic32mx/lib/libpic32.a(vector15.o)

.bss%z136       0x0000000000000000        0x0
 .bss           0x0000000000000000        0x0 /opt/microchip/xc32/v2.40/bin/bin/../../lib/gcc/pic32mx/4.8.3/../../../../pic32mx/lib/libpic32.a(vector14.o)

.data%z137      0x0000000000000000        0x0
 .data          0x0000000000000000        0x0 /opt/microchip/xc32/v2.40/bin/bin/../../lib/gcc/pic32mx/4.8.3/../../../../pic32mx/lib/libpic32.a(vector14.o)

.bss%z138       0x0000000000000000        0x0
 .bss           0x0000000000000000        0x0 /opt/microchip/xc32/v2.40/bin/bin/../../lib/gcc/pic32mx/4.8.3/../../../../pic32mx/lib/libpic32.a(vector13.o)

.data%z139      0x0000000000000000        0x0
 .data          0x0000000000000000        0x0 /opt/microchip/xc32/v2.40/bin/bin/../../lib/gcc/pic32mx/4.8.3/../../../../pic32mx/lib/libpic32.a(vector13.o)

.bss%z140       0x0000000000000000        0x0
 .bss           0x0000000000000000        0x0 /opt/microchip/xc32/v2.40/bin/bin/../../lib/gcc/pic32mx/4.8.3/../../../../pic32mx/lib/libpic32.a(vector11.o)

.data%z141      0x0000000000000000        0x0
 .data          0x0000000000000000        0x0 /opt/microchip/xc32/v2.40/bin/bin/../../lib/gcc/pic32mx/4.8.3/../../../../pic32mx/lib/libpic32.a(vector11.o)

.bss%z142       0x0000000000000000        0x0
 .bss           0x0000000000000000        0x0 /opt/microchip/xc32/v2.40/bin/bin/../../lib/gcc/pic32mx/4.8.3/../../../../pic32mx/lib/libpic32.a(vector10.o)

.data%z143      0x0000000000000000        0x0
 .data          0x0000000000000000        0x0 /opt/microchip/xc32/v2.40/bin/bin/../../lib/gcc/pic32mx/4.8.3/../../../../pic32mx/lib/libpic32.a(vector10.o)

.bss%z144       0x0000000000000000        0x0
 .bss           0x0000000000000000        0x0 /opt/microchip/xc32/v2.40/bin/bin/../../lib/gcc/pic32mx/4.8.3/../../../../pic32mx/lib/libpic32.a(vector9.o)

.data%z145      0x0000000000000000        0x0
 .data          0x0000000000000000        0x0 /opt/microchip/xc32/v2.40/bin/bin/../../lib/gcc/pic32mx/4.8.3/../../../../pic32mx/lib/libpic32.a(vector9.o)

.bss%z146       0x0000000000000000        0x0
 .bss           0x0000000000000000        0x0 /opt/microchip/xc32/v2.40/bin/bin/../../lib/gcc/pic32mx/4.8.3/../../../../pic32mx/lib/libpic32.a(vector8.o)

.data%z147      0x0000000000000000        0x0
 .data          0x0000000000000000        0x0 /opt/microchip/xc32/v2.40/bin/bin/../../lib/gcc/pic32mx/4.8.3/../../../../pic32mx/lib/libpic32.a(vector8.o)

.bss%z148       0x0000000000000000        0x0
 .bss           0x0000000000000000        0x0 /opt/microchip/xc32/v2.40/bin/bin/../../lib/gcc/pic32mx/4.8.3/../../../../pic32mx/lib/libpic32.a(vector7.o)

.data%z149      0x0000000000000000        0x0
 .data          0x0000000000000000        0x0 /opt/microchip/xc32/v2.40/bin/bin/../../lib/gcc/pic32mx/4.8.3/../../../../pic32mx/lib/libpic32.a(vector7.o)

.bss%z150       0x0000000000000000        0x0
 .bss           0x0000000000000000        0x0 /opt/microchip/xc32/v2.40/bin/bin/../../lib/gcc/pic32mx/4.8.3/../../../../pic32mx/lib/libpic32.a(vector6.o)

.data%z151      0x0000000000000000        0x0
 .data          0x0000000000000000        0x0 /opt/microchip/xc32/v2.40/bin/bin/../../lib/gcc/pic32mx/4.8.3/../../../../pic32mx/lib/libpic32.a(vector6.o)

.bss%z152       0x0000000000000000        0x0
 .bss           0x0000000000000000        0x0 /opt/microchip/xc32/v2.40/bin/bin/../../lib/gcc/pic32mx/4.8.3/../../../../pic32mx/lib/libpic32.a(vector5.o)

.data%z153      0x0000000000000000        0x0
 .data          0x0000000000000000        0x0 /opt/microchip/xc32/v2.40/bin/bin/../../lib/gcc/pic32mx/4.8.3/../../../../pic32mx/lib/libpic32.a(vector5.o)

.bss%z154       0x0000000000000000        0x0
 .bss           0x0000000000000000        0x0 /opt/microchip/xc32/v2.40/bin/bin/../../lib/gcc/pic32mx/4.8.3/../../../../pic32mx/lib/libpic32.a(vector3.o)

.data%z155      0x0000000000000000        0x0
 .data          0x0000000000000000        0x0 /opt/microchip/xc32/v2.40/bin/bin/../../lib/gcc/pic32mx/4.8.3/../../../../pic32mx/lib/libpic32.a(vector3.o)

.bss%z156       0x0000000000000000        0x0
 .bss           0x0000000000000000        0x0 /opt/microchip/xc32/v2.40/bin/bin/../../lib/gcc/pic32mx/4.8.3/../../../../pic32mx/lib/libpic32.a(vector2.o)

.data%z157      0x0000000000000000        0x0
 .data          0x0000000000000000        0x0 /opt/microchip/xc32/v2.40/bin/bin/../../lib/gcc/pic32mx/4.8.3/../../../../pic32mx/lib/libpic32.a(vector2.o)

.bss%z158       0x0000000000000000        0x0
 .bss           0x0000000000000000        0x0 /opt/microchip/xc32/v2.40/bin/bin/../../lib/gcc/pic32mx/4.8.3/../../../../pic32mx/lib/libpic32.a(vector1.o)

.data%z159      0x0000000000000000        0x0
 .data          0x0000000000000000        0x0 /opt/microchip/xc32/v2.40/bin/bin/../../lib/gcc/pic32mx/4.8.3/../../../../pic32mx/lib/libpic32.a(vector1.o)

.bss%z160       0x0000000000000000        0x0
 .bss           0x0000000000000000        0x0 /opt/microchip/xc32/v2.40/bin/bin/../../lib/gcc/pic32mx/4.8.3/../../../../pic32mx/lib/libpic32.a(vector0.o)

.data%z161      0x0000000000000000        0x0
 .data          0x0000000000000000        0x0 /opt/microchip/xc32/v2.40/bin/bin/../../lib/gcc/pic32mx/4.8.3/../../../../pic32mx/lib/libpic32.a(vector0.o)

.bss%z162       0x0000000000000000        0x0
 .bss           0x0000000000000000        0x0 /opt/microchip/xc32/v2.40/bin/bin/../../lib/gcc/pic32mx/4.8.3/../../../../pic32mx/lib/libpic32.a(general-exception.o)

.data%z163      0x0000000000000000        0x0
 .data          0x0000000000000000        0x0 /opt/microchip/xc32/v2.40/bin/bin/../../lib/gcc/pic32mx/4.8.3/../../../../pic32mx/lib/libpic32.a(general-exception.o)

.bss%z164       0x0000000000000000        0x0
 .bss           0x0000000000000000        0x0 /opt/microchip/xc32/v2.40/bin/bin/../../lib/gcc/pic32mx/4.8.3/../../../../pic32mx/lib/libpic32.a(pic32_data_init.o)

.data%z165      0x0000000000000000        0x0
 .data          0x0000000000000000        0x0 /opt/microchip/xc32/v2.40/bin/bin/../../lib/gcc/pic32mx/4.8.3/../../../../pic32mx/lib/libpic32.a(pic32_data_init.o)

.bss%z166       0x0000000000000000        0x0
 .bss           0x0000000000000000        0x0 /opt/microchip/xc32/v2.40/bin/bin/../../lib/gcc/pic32mx/4.8.3/../../../../pic32mx/lib/libpic32.a(xc32_uart.o)

.data%z167      0x0000000000000000        0x0
 .data          0x0000000000000000        0x0 /opt/microchip/xc32/v2.40/bin/bin/../../lib/gcc/pic32mx/4.8.3/../../../../pic32mx/lib/libpic32.a(xc32_uart.o)

.bss%z168       0x0000000000000000        0x0
 .bss           0x0000000000000000        0x0 /opt/microchip/xc32/v2.40/bin/bin/../../lib/gcc/pic32mx/4.8.3/../../../../pic32mx/lib/libpic32.a(default-nmi-handler.o)

.data%z169      0x0000000000000000        0x0
 .data          0x0000000000000000        0x0 /opt/microchip/xc32/v2.40/bin/bin/../../lib/gcc/pic32mx/4.8.3/../../../../pic32mx/lib/libpic32.a(default-nmi-handler.o)

.bss%z170       0x0000000000000000        0x0
 .bss           0x0000000000000000        0x0 /opt/microchip/xc32/v2.40/bin/bin/../../lib/gcc/pic32mx/4.8.3/../../../../pic32mx/lib/libpic32.a(default-on-bootstrap.o)

.data%z171      0x0000000000000000        0x0
 .data          0x0000000000000000        0x0 /opt/microchip/xc32/v2.40/bin/bin/../../lib/gcc/pic32mx/4.8.3/../../../../pic32mx/lib/libpic32.a(default-on-bootstrap.o)

.bss%z172       0x0000000000000000        0x0
 .bss           0x0000000000000000        0x0 /opt/microchip/xc32/v2.40/bin/bin/../../lib/gcc/pic32mx/4.8.3/../../../../pic32mx/lib/libpic32.a(default-on-reset.o)

.data%z173      0x0000000000000000        0x0
 .data          0x0000000000000000        0x0 /opt/microchip/xc32/v2.40/bin/bin/../../lib/gcc/pic32mx/4.8.3/../../../../pic32mx/lib/libpic32.a(default-on-reset.o)

.bss%z174       0x0000000000000000        0x0
 .bss           0x0000000000000000        0x0 /opt/microchip/xc32/v2.40/bin/bin/../../lib/gcc/pic32mx/4.8.3/../../../../pic32mx/lib/libpic32.a(default-bootstrap-exception-handler.o)

.data%z175      0x0000000000000000        0x0
 .data          0x0000000000000000        0x0 /opt/microchip/xc32/v2.40/bin/bin/../../lib/gcc/pic32mx/4.8.3/../../../../pic32mx/lib/libpic32.a(default-bootstrap-exception-handler.o)

.bss%z176       0x0000000000000000        0x0
 .bss           0x0000000000000000        0x0 /opt/microchip/xc32/v2.40/bin/bin/../../lib/gcc/pic32mx/4.8.3/../../../../pic32mx/lib/libpic32.a(strlen.o)

.data%z177      0x0000000000000000        0x0
 .data          0x0000000000000000        0x0 /opt/microchip/xc32/v2.40/bin/bin/../../lib/gcc/pic32mx/4.8.3/../../../../pic32mx/lib/libpic32.a(strlen.o)

.bss%z178       0x0000000000000000        0x0
 .bss           0x0000000000000000        0x0 /opt/microchip/xc32/v2.40/bin/bin/../../lib/gcc/pic32mx/4.8.3/../../../../pic32mx/lib/libpic32.a(strcmp.o)

.data%z179      0x0000000000000000        0x0
 .data          0x0000000000000000        0x0 /opt/microchip/xc32/v2.40/bin/bin/../../lib/gcc/pic32mx/4.8.3/../../../../pic32mx/lib/libpic32.a(strcmp.o)

.bss%z180       0x0000000000000000        0x0
 .bss           0x0000000000000000        0x0 /opt/microchip/xc32/v2.40/bin/bin/../../lib/gcc/pic32mx/4.8.3/../../../../pic32mx/lib/libpic32.a(memset.o)

.data%z181      0x0000000000000000        0x0
 .data          0x0000000000000000        0x0 /opt/microchip/xc32/v2.40/bin/bin/../../lib/gcc/pic32mx/4.8.3/../../../../pic32mx/lib/libpic32.a(memset.o)

.bss%z182       0x0000000000000000        0x0
 .bss           0x0000000000000000        0x0 /opt/microchip/xc32/v2.40/bin/bin/../../lib/gcc/pic32mx/4.8.3/../../../../pic32mx/lib/libpic32.a(memcpy.o)

.data%z183      0x0000000000000000        0x0
 .data          0x0000000000000000        0x0 /opt/microchip/xc32/v2.40/bin/bin/../../lib/gcc/pic32mx/4.8.3/../../../../pic32mx/lib/libpic32.a(memcpy.o)

.bss%z184       0x0000000000000000        0x0
 .bss           0x0000000000000000        0x0 /opt/microchip/xc32/v2.40/bin/bin/../../lib/gcc/pic32mx/4.8.3/../../../../pic32mx/lib/libpic32.a(memcmp.o)

.data%z185      0x0000000000000000        0x0
 .data          0x0000000000000000        0x0 /opt/microchip/xc32/v2.40/bin/bin/../../lib/gcc/pic32mx/4.8.3/../../../../pic32mx/lib/libpic32.a(memcmp.o)

.bss%z186       0x0000000000000000        0x0
 .bss           0x0000000000000000        0x0 /opt/microchip/xc32/v2.40/bin/bin/../../lib/gcc/pic32mx/4.8.3/libgcc.a(floatunsisf.o)

.data%z187      0x0000000000000000        0x0
 .data          0x0000000000000000        0x0 /opt/microchip/xc32/v2.40/bin/bin/../../lib/gcc/pic32mx/4.8.3/libgcc.a(floatunsisf.o)

.bss%z188       0x0000000000000000        0x0
 .bss           0x0000000000000000        0x0 /opt/microchip/xc32/v2.40/bin/bin/../../lib/gcc/pic32mx/4.8.3/libgcc.a(_udivdi3.o)

.data%z189      0x0000000000000000        0x0
 .data          0x0000000000000000        0x0 /opt/microchip/xc32/v2.40/bin/bin/../../lib/gcc/pic32mx/4.8.3/libgcc.a(_udivdi3.o)

.bss%z190       0x0000000000000000        0x0
 .bss           0x0000000000000000        0x0 /opt/microchip/xc32/v2.40/bin/bin/../../lib/gcc/pic32mx/4.8.3/../../../../pic32mx/lib/libmchp_peripheral_32MX270F256B.a(_rtcc_wait_clock_off_lib.o)

.bss%z191       0x0000000000000000        0x0
 .bss           0x0000000000000000        0x0 /opt/microchip/xc32/v2.40/bin/bin/../../lib/gcc/pic32mx/4.8.3/../../../../pic32mx/lib/libmchp_peripheral_32MX270F256B.a(_rtcc_set_time_and_date_lib.o)

.data%z192      0x0000000000000000        0x0
 .data          0x0000000000000000        0x0 /opt/microchip/xc32/v2.40/bin/bin/../../lib/gcc/pic32mx/4.8.3/../../../../pic32mx/lib/libmchp_peripheral_32MX270F256B.a(_rtcc_set_time_and_date_lib.o)

.bss%z193       0x0000000000000000        0x0
 .bss           0x0000000000000000        0x0 /opt/microchip/xc32/v2.40/bin/bin/../../lib/gcc/pic32mx/4.8.3/../../../../pic32mx/lib/libmchp_peripheral_32MX270F256B.a(nvm_write_word_lib.o)

.data%z194      0x0000000000000000        0x0
 .data          0x0000000000000000        0x0 /opt/microchip/xc32/v2.40/bin/bin/../../lib/gcc/pic32mx/4.8.3/../../../../pic32mx/lib/libmchp_peripheral_32MX270F256B.a(nvm_write_word_lib.o)

.bss%z195       0x0000000000000000        0x0
 .bss           0x0000000000000000        0x0 /opt/microchip/xc32/v2.40/bin/bin/../../lib/gcc/pic32mx/4.8.3/../../../../pic32mx/lib/libmchp_peripheral_32MX270F256B.a(nvm_operation_lib.o)

.data%z196      0x0000000000000000        0x0
 .data          0x0000000000000000        0x0 /opt/microchip/xc32/v2.40/bin/bin/../../lib/gcc/pic32mx/4.8.3/../../../../pic32mx/lib/libmchp_peripheral_32MX270F256B.a(nvm_operation_lib.o)

.bss%z197       0x0000000000000000        0x0
 .bss           0x0000000000000000        0x0 /opt/microchip/xc32/v2.40/bin/bin/../../lib/gcc/pic32mx/4.8.3/../../../../pic32mx/lib/libmchp_peripheral_32MX270F256B.a(nvm_erase_page_lib.o)

.data%z198      0x0000000000000000        0x0
 .data          0x0000000000000000        0x0 /opt/microchip/xc32/v2.40/bin/bin/../../lib/gcc/pic32mx/4.8.3/../../../../pic32mx/lib/libmchp_peripheral_32MX270F256B.a(nvm_erase_page_lib.o)

.bss%z199       0x0000000000000000        0x0
 .bss           0x0000000000000000        0x0 /opt/microchip/xc32/v2.40/bin/bin/../../lib/gcc/pic32mx/4.8.3/../../../../pic32mx/lib/libmchp_peripheral_32MX270F256B.a(rtcc_set_time_date_lib.o)

.data%z200      0x0000000000000000        0x0
 .data          0x0000000000000000        0x0 /opt/microchip/xc32/v2.40/bin/bin/../../lib/gcc/pic32mx/4.8.3/../../../../pic32mx/lib/libmchp_peripheral_32MX270F256B.a(rtcc_set_time_date_lib.o)

.bss%z201       0x0000000000000000        0x0
 .bss           0x0000000000000000        0x0 /opt/microchip/xc32/v2.40/bin/bin/../../lib/gcc/pic32mx/4.8.3/../../../../pic32mx/lib/libmchp_peripheral_32MX270F256B.a(int_tbl_lib.o)

.data%z202      0x0000000000000000        0x0
 .data          0x0000000000000000        0x0 /opt/microchip/xc32/v2.40/bin/bin/../../lib/gcc/pic32mx/4.8.3/../../../../pic32mx/lib/libmchp_peripheral_32MX270F256B.a(int_tbl_lib.o)

.bss%z203       0x0000000000000000        0x0
 .bss           0x0000000000000000        0x0 /opt/microchip/xc32/v2.40/bin/bin/../../lib/gcc/pic32mx/4.8.3/../../../../pic32mx/lib/libmchp_peripheral_32MX270F256B.a(int_enable_mv_int_lib.o)

.data%z204      0x0000000000000000        0x0
 .data          0x0000000000000000        0x0 /opt/microchip/xc32/v2.40/bin/bin/../../lib/gcc/pic32mx/4.8.3/../../../../pic32mx/lib/libmchp_peripheral_32MX270F256B.a(int_enable_mv_int_lib.o)

.bss%z205       0x0000000000000000        0x0
 .bss           0x0000000000000000        0x0 /opt/microchip/xc32/v2.40/bin/bin/../../lib/gcc/pic32mx/4.8.3/../../../../pic32mx/lib/libmchp_peripheral_32MX270F256B.a(int_restore_interrupts_lib.o)

.data%z206      0x0000000000000000        0x0
 .data          0x0000000000000000        0x0 /opt/microchip/xc32/v2.40/bin/bin/../../lib/gcc/pic32mx/4.8.3/../../../../pic32mx/lib/libmchp_peripheral_32MX270F256B.a(int_restore_interrupts_lib.o)

.bss%z207       0x0000000000000000        0x0
 .bss           0x0000000000000000        0x0 /opt/microchip/xc32/v2.40/bin/bin/../../lib/gcc/pic32mx/4.8.3/../../../../pic32mx/lib/libmchp_peripheral_32MX270F256B.a(int_disable_interrupts_lib.o)

.data%z208      0x0000000000000000        0x0
 .data          0x0000000000000000        0x0 /opt/microchip/xc32/v2.40/bin/bin/../../lib/gcc/pic32mx/4.8.3/../../../../pic32mx/lib/libmchp_peripheral_32MX270F256B.a(int_disable_interrupts_lib.o)

.bss%z209       0x0000000000000000        0x0
 .bss           0x0000000000000000        0x0 /opt/microchip/xc32/v2.40/bin/bin/../../lib/gcc/pic32mx/4.8.3/../../../../pic32mx/lib/libmchp_peripheral_32MX270F256B.a(int_enable_interrupts_lib.o)

.data%z210      0x0000000000000000        0x0
 .data          0x0000000000000000        0x0 /opt/microchip/xc32/v2.40/bin/bin/../../lib/gcc/pic32mx/4.8.3/../../../../pic32mx/lib/libmchp_peripheral_32MX270F256B.a(int_enable_interrupts_lib.o)

.bss%z211       0x0000000000000000        0x0
 .bss           0x0000000000000000        0x0 /opt/microchip/xc32/v2.40/bin/bin/../../lib/gcc/pic32mx/4.8.3/../../../../pic32mx/lib/libmchp_peripheral_32MX270F256B.a(soft_reset_lib.o)

.data%z212      0x0000000000000000        0x0
 .data          0x0000000000000000        0x0 /opt/microchip/xc32/v2.40/bin/bin/../../lib/gcc/pic32mx/4.8.3/../../../../pic32mx/lib/libmchp_peripheral_32MX270F256B.a(soft_reset_lib.o)

.bss%z213       0x0000000000000000        0x0
 .bss           0x0000000000000000        0x0 /opt/microchip/xc32/v2.40/bin/bin/../../lib/gcc/pic32mx/4.8.3/../../../../pic32mx/lib/libmchp_peripheral.a(read_core_timer_lib.o)

.data%z214      0x0000000000000000        0x0
 .data          0x0000000000000000        0x0 /opt/microchip/xc32/v2.40/bin/bin/../../lib/gcc/pic32mx/4.8.3/../../../../pic32mx/lib/libmchp_peripheral.a(read_core_timer_lib.o)

.bss%z215       0x0000000000000000        0x0
 .bss           0x0000000000000000        0x0 /opt/microchip/xc32/v2.40/bin/bin/../../lib/gcc/pic32mx/4.8.3/../../../../pic32mx/lib/./proc/32MX270F256B/processor.o

.data%z216      0x0000000000000000        0x0
 .data          0x0000000000000000        0x0 /opt/microchip/xc32/v2.40/bin/bin/../../lib/gcc/pic32mx/4.8.3/../../../../pic32mx/lib/./proc/32MX270F256B/processor.o

.bss%z217       0x0000000000000000        0x0
 .bss           0x0000000000000000        0x0 /opt/microchip/xc32/v2.40/bin/bin/../../lib/gcc/pic32mx/4.8.3/../../../../pic32mx/lib/pic32_software_reset.o

.data%z218      0x0000000000000000        0x0
 .data          0x0000000000000000        0x0 /opt/microchip/xc32/v2.40/bin/bin/../../lib/gcc/pic32mx/4.8.3/../../../../pic32mx/lib/pic32_software_reset.o

.bss%z219       0x0000000000000000        0x0
 .bss           0x0000000000000000        0x0 /tmp/cccJkBig.o

.data%z220      0x0000000000000000        0x0
 .data          0x0000000000000000        0x0 /tmp/cccJkBig.o

.bss%z221       0x0000000000000000        0x0
 .bss           0x0000000000000000        0x0 /tmp/cciMKlRo.o

.data%z222      0x0000000000000000        0x0
 .data          0x0000000000000000        0x0 /tmp/cciMKlRo.o

.bss%z223       0x0000000000000000        0x0
 .bss           0x0000000000000000        0x0 /tmp/cc1HBx2X.o

.data%z224      0x0000000000000000        0x0
 .data          0x0000000000000000        0x0 /tmp/cc1HBx2X.o

.bss%z225       0x0000000000000000        0x0
 .bss           0x0000000000000000        0x0 build/default/debug/common.o

.data%z226      0x0000000000000000        0x0
 .data          0x0000000000000000        0x0 build/default/debug/common.o

.bss%z227       0x0000000000000000        0x0
 .bss           0x0000000000000000        0x0 build/default/debug/main.o

.data%z228      0x0000000000000000        0x0
 .data          0x0000000000000000        0x0 build/default/debug/main.o

.bss%z229       0x0000000000000000        0x0
 .bss           0x0000000000000000        0x0 build/default/debug/usb/usb_function_cdc.o

.data%z230      0x0000000000000000        0x0
 .data          0x0000000000000000        0x0 build/default/debug/usb/usb_function_cdc.o

.bss%z231       0x0000000000000000        0x0
 .bss           0x0000000000000000        0x0 build/default/debug/usb/usb_device.o

.data%z232      0x0000000000000000        0x0
 .data          0x0000000000000000        0x0 build/default/debug/usb/usb_device.o

.bss%z233       0x0000000000000000        0x0
 .bss           0x0000000000000000        0x0 build/default/debug/usb/usb_descriptors.o

.data%z234      0x0000000000000000        0x0
 .data          0x0000000000000000        0x0 build/default/debug/usb/usb_descriptors.o

.bss%z235       0x0000000000000000        0x0
 .bss           0x0000000000000000        0x0 build/default/debug/usb/event.o

.data%z236      0x0000000000000000        0x0
 .data          0x0000000000000000        0x0 build/default/debug/usb/event.o

.bss%z237       0x0000000000000000        0x0
 .bss           0x0000000000000000        0x0 build/default/debug/uart/debug_uart.o

.data%z238      0x0000000000000000        0x0
 .data          0x0000000000000000        0x0 build/default/debug/uart/debug_uart.o

.bss%z239       0x0000000000000000        0x0
 .bss           0x0000000000000000        0x0 build/default/debug/uart/uart.o

.data%z240      0x0000000000000000        0x0
 .data          0x0000000000000000        0x0 build/default/debug/uart/uart.o

.bss%z241       0x0000000000000000        0x0
 .bss           0x0000000000000000        0x0 build/default/debug/time/time.o

.data%z242      0x0000000000000000        0x0
 .data          0x0000000000000000        0x0 build/default/debug/time/time.o

.bss%z243       0x0000000000000000        0x0
 .bss           0x0000000000000000        0x0 build/default/debug/nvram/nvram.o

.data%z244      0x0000000000000000        0x0
 .data          0x0000000000000000        0x0 build/default/debug/nvram/nvram.o

.bss%z245       0x0000000000000000        0x0
 .bss           0x0000000000000000        0x0 build/default/debug/net/ZeroconfMulticastDNS.o

.data%z246      0x0000000000000000        0x0
 .data          0x0000000000000000        0x0 build/default/debug/net/ZeroconfMulticastDNS.o

.bss%z247       0x0000000000000000        0x0
 .bss           0x0000000000000000        0x0 build/default/debug/net/ZeroconfLinkLocal.o

.data%z248      0x0000000000000000        0x0
 .data          0x0000000000000000        0x0 build/default/debug/net/ZeroconfLinkLocal.o

.bss%z249       0x0000000000000000        0x0
 .bss           0x0000000000000000        0x0 build/default/debug/net/ZeroconfHelper.o

.data%z250      0x0000000000000000        0x0
 .data          0x0000000000000000        0x0 build/default/debug/net/ZeroconfHelper.o

.bss%z251       0x0000000000000000        0x0
 .bss           0x0000000000000000        0x0 build/default/debug/net/UDP.o

.data%z252      0x0000000000000000        0x0
 .data          0x0000000000000000        0x0 build/default/debug/net/UDP.o

.bss%z253       0x0000000000000000        0x0
 .bss           0x0000000000000000        0x0 build/default/debug/net/Tick.o

.data%z254      0x0000000000000000        0x0
 .data          0x0000000000000000        0x0 build/default/debug/net/Tick.o

.bss%z255       0x0000000000000000        0x0
 .bss           0x0000000000000000        0x0 build/default/debug/net/Telnet.o

.data%z256      0x0000000000000000        0x0
 .data          0x0000000000000000        0x0 build/default/debug/net/Telnet.o

.data%z257      0x0000000000000000        0x0
 .data          0x0000000000000000        0x0 build/default/debug/net/TCP.o

.bss%z258       0x0000000000000000        0x0
 .bss           0x0000000000000000        0x0 build/default/debug/net/StackTsk.o

.data%z259      0x0000000000000000        0x0
 .data          0x0000000000000000        0x0 build/default/debug/net/StackTsk.o

.bss%z260       0x0000000000000000        0x0
 .bss           0x0000000000000000        0x0 build/default/debug/net/SSL.o

.data%z261      0x0000000000000000        0x0
 .data          0x0000000000000000        0x0 build/default/debug/net/SSL.o

.bss%z262       0x0000000000000000        0x0
 .bss           0x0000000000000000        0x0 build/default/debug/net/SNTP.o

.data%z263      0x0000000000000000        0x0
 .data          0x0000000000000000        0x0 build/default/debug/net/SNTP.o

.bss%z264       0x0000000000000000        0x0
 .bss           0x0000000000000000        0x0 build/default/debug/net/SMTP.o

.data%z265      0x0000000000000000        0x0
 .data          0x0000000000000000        0x0 build/default/debug/net/SMTP.o

.bss%z266       0x0000000000000000        0x0
 .bss           0x0000000000000000        0x0 build/default/debug/net/RSA.o

.data%z267      0x0000000000000000        0x0
 .data          0x0000000000000000        0x0 build/default/debug/net/RSA.o

.bss%z268       0x0000000000000000        0x0
 .bss           0x0000000000000000        0x0 build/default/debug/net/Reboot.o

.data%z269      0x0000000000000000        0x0
 .data          0x0000000000000000        0x0 build/default/debug/net/Reboot.o

.bss%z270       0x0000000000000000        0x0
 .bss           0x0000000000000000        0x0 build/default/debug/net/Random.o

.data%z271      0x0000000000000000        0x0
 .data          0x0000000000000000        0x0 build/default/debug/net/Random.o

.bss%z272       0x0000000000000000        0x0
 .bss           0x0000000000000000        0x0 build/default/debug/net/NBNS.o

.data%z273      0x0000000000000000        0x0
 .data          0x0000000000000000        0x0 build/default/debug/net/NBNS.o

.bss%z274       0x0000000000000000        0x0
 .bss           0x0000000000000000        0x0 build/default/debug/MPFSImg2.o

.data%z275      0x0000000000000000        0x0
 .data          0x0000000000000000        0x0 build/default/debug/MPFSImg2.o

.data%z276      0x0000000000000000        0x0
 .data          0x0000000000000000        0x0 build/default/debug/net/MPFS2.o

.bss%z277       0x0000000000000000        0x0
 .bss           0x0000000000000000        0x0 build/default/debug/net/IP.o

.data%z278      0x0000000000000000        0x0
 .data          0x0000000000000000        0x0 build/default/debug/net/IP.o

.bss%z279       0x0000000000000000        0x0
 .bss           0x0000000000000000        0x0 build/default/debug/net/ICMP.o

.data%z280      0x0000000000000000        0x0
 .data          0x0000000000000000        0x0 build/default/debug/net/ICMP.o

.bss%z281       0x0000000000000000        0x0
 .bss           0x0000000000000000        0x0 build/default/debug/net/HTTP2.o

.data%z282      0x0000000000000000        0x0
 .data          0x0000000000000000        0x0 build/default/debug/net/HTTP2.o

.bss%z283       0x0000000000000000        0x0
 .bss           0x0000000000000000        0x0 build/default/debug/net/Helpers.o

.data%z284      0x0000000000000000        0x0
 .data          0x0000000000000000        0x0 build/default/debug/net/Helpers.o

.bss%z285       0x0000000000000000        0x0
 .bss           0x0000000000000000        0x0 build/default/debug/net/Hashes.o

.data%z286      0x0000000000000000        0x0
 .data          0x0000000000000000        0x0 build/default/debug/net/Hashes.o

.bss%z287       0x0000000000000000        0x0
 .bss           0x0000000000000000        0x0 build/default/debug/net/GenericTCPServer.o

.data%z288      0x0000000000000000        0x0
 .data          0x0000000000000000        0x0 build/default/debug/net/GenericTCPServer.o

.bss%z289       0x0000000000000000        0x0
 .bss           0x0000000000000000        0x0 build/default/debug/net/FTP.o

.data%z290      0x0000000000000000        0x0
 .data          0x0000000000000000        0x0 build/default/debug/net/FTP.o

.bss%z291       0x0000000000000000        0x0
 .bss           0x0000000000000000        0x0 build/default/debug/net/ENC28J60.o

.data%z292      0x0000000000000000        0x0
 .data          0x0000000000000000        0x0 build/default/debug/net/ENC28J60.o

.data%z293      0x0000000000000000        0x0
 .data          0x0000000000000000        0x0 build/default/debug/net/DNS.o

.data%z294      0x0000000000000000        0x0
 .data          0x0000000000000000        0x0 build/default/debug/net/DHCP.o

.bss%z295       0x0000000000000000        0x0
 .bss           0x0000000000000000        0x0 build/default/debug/CustomHTTPApp.o

.data%z296      0x0000000000000000        0x0
 .data          0x0000000000000000        0x0 build/default/debug/CustomHTTPApp.o

.bss%z297       0x0000000000000000        0x0
 .bss           0x0000000000000000        0x0 build/default/debug/net/BigInt.o

.data%z298      0x0000000000000000        0x0
 .data          0x0000000000000000        0x0 build/default/debug/net/BigInt.o

.bss%z299       0x0000000000000000        0x0
 .bss           0x0000000000000000        0x0 build/default/debug/net/BerkeleyAPI.o

.data%z300      0x0000000000000000        0x0
 .data          0x0000000000000000        0x0 build/default/debug/net/BerkeleyAPI.o

.bss%z301       0x0000000000000000        0x0
 .bss           0x0000000000000000        0x0 build/default/debug/net/AutoIP.o

.data%z302      0x0000000000000000        0x0
 .data          0x0000000000000000        0x0 build/default/debug/net/AutoIP.o

.data%z303      0x0000000000000000        0x0
 .data          0x0000000000000000        0x0 build/default/debug/net/ARP.o

.bss%z304       0x0000000000000000        0x0
 .bss           0x0000000000000000        0x0 build/default/debug/net/ARCFOUR.o

.data%z305      0x0000000000000000        0x0
 .data          0x0000000000000000        0x0 build/default/debug/net/ARCFOUR.o

.bss%z306       0x0000000000000000        0x0
 .bss           0x0000000000000000        0x0 build/default/debug/net/Announce.o

.data%z307      0x0000000000000000        0x0
 .data          0x0000000000000000        0x0 build/default/debug/net/Announce.o

.bss%z308       0x0000000000000000        0x0
 .bss           0x0000000000000000        0x0 build/default/debug/fatfs/diskio.o

.data%z309      0x0000000000000000        0x0
 .data          0x0000000000000000        0x0 build/default/debug/fatfs/diskio.o

.bss%z310       0x0000000000000000        0x0
 .bss           0x0000000000000000        0x0 build/default/debug/fatfs/SPIFlash.o

.data%z311      0x0000000000000000        0x0
 .data          0x0000000000000000        0x0 build/default/debug/fatfs/SPIFlash.o

.bss%z312       0x0000000000000000        0x0
 .bss           0x0000000000000000        0x0 build/default/debug/fatfs/ffunicode.o

.data%z313      0x0000000000000000        0x0
 .data          0x0000000000000000        0x0 build/default/debug/fatfs/ffunicode.o

.bss%z314       0x0000000000000000        0x0
 .bss           0x0000000000000000        0x0 build/default/debug/fatfs/ffsystem.o

.data%z315      0x0000000000000000        0x0
 .data          0x0000000000000000        0x0 build/default/debug/fatfs/ffsystem.o

.data%z316      0x0000000000000000        0x0
 .data          0x0000000000000000        0x0 build/default/debug/fatfs/ff.o

.bss%z317       0x0000000000000000        0x0
 .bss           0x0000000000000000        0x0 build/default/debug/delay/delay.o

.data%z318      0x0000000000000000        0x0
 .data          0x0000000000000000        0x0 build/default/debug/delay/delay.o

.bss%z319       0x0000000000000000        0x0
 .bss           0x0000000000000000        0x0 build/default/debug/config/config.o

.data%z320      0x0000000000000000        0x0
 .data          0x0000000000000000        0x0 build/default/debug/config/config.o

.bss%z321       0x0000000000000000        0x0
 .bss           0x0000000000000000        0x0 /opt/microchip/xc32/v2.40/bin/bin/../../lib/gcc/pic32mx/4.8.3/../../../../pic32mx/lib/debug-exception-return.o

.data%z322      0x0000000000000000        0x0
 .data          0x0000000000000000        0x0 /opt/microchip/xc32/v2.40/bin/bin/../../lib/gcc/pic32mx/4.8.3/../../../../pic32mx/lib/debug-exception-return.o

._debug_exception
                0xffffffffbfc00480       0x2c
 ._debug_exception
                0xffffffffbfc00480       0x2c /opt/microchip/xc32/v2.40/bin/bin/../../lib/gcc/pic32mx/4.8.3/../../../../pic32mx/lib/debug-exception-return.o
                0xffffffffbfc00480                __DbgExecReturn

.text           0x000000009d000000     0x9f68
 .text          0x000000009d000000     0x550c build/default/debug/fatfs/ff.o
                0x000000009d002a48                f_mount
                0x000000009d002ad8                f_open
                0x000000009d002e4c                f_read
                0x000000009d00313c                f_write
                0x000000009d00356c                f_sync
                0x000000009d00367c                f_close
                0x000000009d0036bc                f_lseek
                0x000000009d0039c4                f_opendir
                0x000000009d003ab4                f_closedir
                0x000000009d003ae4                f_readdir
                0x000000009d003b7c                f_findnext
                0x000000009d003c00                f_findfirst
                0x000000009d003c4c                f_stat
                0x000000009d003ccc                f_getfree
                0x000000009d003e8c                f_truncate
                0x000000009d003fe8                f_unlink
                0x000000009d004118                f_mkdir
                0x000000009d004318                f_rename
                0x000000009d0044ec                f_mkfs
                0x000000009d004eac                f_gets
                0x000000009d004f54                f_putc
                0x000000009d004fa8                f_puts
                0x000000009d005010                f_printf
 .text          0x000000009d00550c     0x4a5c build/default/debug/net/TCP.o
                0x000000009d0061b4                TCPInit
                0x000000009d00636c                TCPOpen
                0x000000009d0066a4                TCPWasReset
                0x000000009d00670c                TCPIsConnected
                0x000000009d006748                TCPDisconnect
                0x000000009d006950                TCPClose
                0x000000009d00699c                TCPGetRemoteInfo
                0x000000009d006a00                TCPFlush
                0x000000009d006a64                TCPIsPutReady
                0x000000009d006b18                TCPPut
                0x000000009d006d38                TCPPutArray
                0x000000009d006fe4                TCPPutString
                0x000000009d00702c                TCPGetTxFIFOFull
                0x000000009d007094                TCPIsGetReady
                0x000000009d007114                TCPDiscard
                0x000000009d007170                TCPGet
                0x000000009d007310                TCPGetArray
                0x000000009d007554                TCPGetRxFIFOFree
                0x000000009d0075b8                TCPPeekArray
                0x000000009d00772c                TCPPeek
                0x000000009d007754                TCPFindArrayEx
                0x000000009d007b40                TCPFindEx
                0x000000009d007b78                TCPTick
                0x000000009d008680                TCPProcess
                0x000000009d009c1c                TCPAdjustFIFOSize

.rodata         0x000000009d009f68     0x485c
 .rodata        0x000000009d009f68     0x485c build/default/debug/MPFSImg2.o
                0x000000009d009f68                MPFS_Start

.text           0x000000009d00e7c4     0x4100
 .text          0x000000009d00e7c4     0x223c build/default/debug/net/HTTP2.o
                0x000000009d00eab0                HTTPPrint
                0x000000009d00ecbc                HTTPPrint_
                0x000000009d00ecf0                HTTPInit
                0x000000009d00edc0                HTTPURLDecode
                0x000000009d00ef08                HTTPServer
                0x000000009d01071c                HTTPGetArg
                0x000000009d0107b0                HTTPReadPostName
                0x000000009d010808                HTTPReadPostValue
                0x000000009d0108bc                HTTPIncFile
 .text          0x000000009d010a00     0x1ec4 build/default/debug/usb/usb_device.o
                0x000000009d010b98                USBDeviceInit
                0x000000009d010dbc                USBEnableEndpoint
                0x000000009d010e90                USBTransferOnePacket
                0x000000009d010f84                USBStallEndpoint
                0x000000009d011030                USBCancelIO
                0x000000009d011118                USBDeviceDetach
                0x000000009d011134                USBDeviceAttach
                0x000000009d011204                USBCtrlEPAllowStatusStage
                0x000000009d011314                USBCtrlEPAllowDataStage
                0x000000009d0113f8                _USB1Interrupt

.text           0x000000009d0128c4     0x33fc
 .text          0x000000009d0128c4     0x1c5c build/default/debug/net/ENC28J60.o
                0x000000009d012c20                MACIsTxReady
                0x000000009d012c4c                MACDiscardRx
                0x000000009d012cbc                MACGetFreeRxSize
                0x000000009d012dbc                MACSetReadPtrInRx
                0x000000009d012e14                MACSetWritePtr
                0x000000009d012e7c                MACSetReadPtr
                0x000000009d012ee4                MACIsMemCopyDone
                0x000000009d012f10                MACGet
                0x000000009d012f94                MACGetArray
                0x000000009d013138                MACGetHeader
                0x000000009d01335c                MACFlush
                0x000000009d0135b0                CalcIPBufferChecksum
                0x000000009d0136d0                MACCalcRxChecksum
                0x000000009d01378c                MACPut
                0x000000009d01381c                MACMemCopyAsync
                0x000000009d013b2c                MACPutArray
                0x000000009d013d1c                MACPutHeader
                0x000000009d013dbc                ReadPHYReg
                0x000000009d013e7c                MACIsLinked
                0x000000009d013ea4                WritePHYReg
                0x000000009d013f28                MACInit
                0x000000009d0143f4                MACPowerDown
                0x000000009d01445c                MACPowerUp
                0x000000009d0144a4                SetCLKOUT
                0x000000009d0144e0                GetCLKOUT
 .text          0x000000009d014520     0x17a0 build/default/debug/CustomHTTPApp.o
                0x000000009d014520                HTTPNeedsAuth
                0x000000009d014550                HTTPCheckAuth
                0x000000009d0145a0                HTTPExecuteGet
                0x000000009d01462c                HTTPExecutePost
                0x000000009d014e00                HTTPPrint_dhcpyes
                0x000000009d014e48                HTTPPrint_dhcpno
                0x000000009d014e90                HTTPPrint_ipdisp
                0x000000009d014efc                HTTPPrint_ip
                0x000000009d014fbc                HTTPPrint_mac
                0x000000009d01507c                HTTPPrint_netmask
                0x000000009d01513c                HTTPPrint_gw
                0x000000009d0151fc                HTTPPrint_dns1
                0x000000009d0152bc                HTTPPrint_dns2
                0x000000009d01537c                HTTPPrint_ntp
                0x000000009d0153b4                HTTPPrint_newip
                0x000000009d015470                HTTPPrint_reset
                0x000000009d015480                HTTPPrint_restore
                0x000000009d01554c                HTTPPrint_passChangeStatus
                0x000000009d0156b0                HTTPPrint_configChangeStatus
                0x000000009d015934                HTTPPrint_configToken
                0x000000009d0159e0                HTTPPrint_uptime
                0x000000009d015b0c                HTTPPrint_time
                0x000000009d015b64                HTTPPrint_timezone
                0x000000009d015bcc                HTTPPrint_cpufreq
                0x000000009d015c14                HTTPPrint_lstfls

.text._vfprintf_cdfFnopsuxX
                0x000000009d015cc0     0x1550
 .text._vfprintf_cdfFnopsuxX
                0x000000009d015cc0     0x1550 /opt/microchip/xc32/v2.40/bin/bin/../../lib/gcc/pic32mx/4.8.3/../../../../pic32mx/lib/libc.a(doprnt_cdfFnopsuxX.eo)
                0x000000009d015cc0                _vfprintf_cdnopuxX
                0x000000009d015cc0                _vfprintf_cdnopsuxX
                0x000000009d015cc0                _vfprintf_cdfFnopsuxX
                0x000000009d015cc0                _vfprintf_cdfFnopuxX

.text           0x000000009d017210     0x1cdc
 .text          0x000000009d017210     0x1034 build/default/debug/net/DHCP.o
                0x000000009d017a44                DHCPInit
                0x000000009d017abc                DHCPDisable
                0x000000009d017b08                DHCPEnable
                0x000000009d017b38                DHCPIsEnabled
                0x000000009d017b48                DHCPIsBound
                0x000000009d017b58                DHCPStateChanged
                0x000000009d017b8c                DHCPIsServerDetected
                0x000000009d017b9c                DHCPTempIPAddr
                0x000000009d017bb8                DHCPTask
 .text          0x000000009d018244      0xca8 build/default/debug/net/MPFS2.o
                0x000000009d018244                MPFSClose
                0x000000009d01827c                MPFSGet
                0x000000009d018354                MPFSGetArray
                0x000000009d01845c                MPFSInit
                0x000000009d018584                MPFSOpenID
                0x000000009d018664                MPFSOpen
                0x000000009d0188a4                MPFSGetLong
                0x000000009d0188c8                MPFSGetTimestamp
                0x000000009d01893c                MPFSGetMicrotime
                0x000000009d0189b0                MPFSGetFlags
                0x000000009d018a24                MPFSGetSize
                0x000000009d018a98                MPFSGetBytesRem
                0x000000009d018af4                MPFSGetStartAddr
                0x000000009d018b68                MPFSGetEndAddr
                0x000000009d018be8                MPFSSeek
                0x000000009d018dd0                MPFSGetFilename
                0x000000009d018e8c                MPFSGetPosition
                0x000000009d018ecc                MPFSGetID

.text           0x000000009d018eec     0x1708
 .text          0x000000009d018eec      0xca0 build/default/debug/fatfs/SPIFlash.o
                0x000000009d018ff8                SPIFlashInit
                0x000000009d0192b0                SPIFlashReadArray
                0x000000009d01947c                SPIFlashBeginWrite
                0x000000009d019484                SPIFlashEraseSector
                0x000000009d019620                SPIFlashWrite
                0x000000009d019820                SPIFlashWriteArray
 .text          0x000000009d019b8c      0xa68 build/default/debug/net/DNS.o
                0x000000009d019d50                DNSBeginUsage
                0x000000009d019d7c                DNSEndUsage
                0x000000009d019dcc                DNSResolve
                0x000000009d019e40                DNSIsResolved

.text           0x000000009d01a5f4     0x149c
 .text          0x000000009d01a5f4      0xa60 build/default/debug/net/UDP.o
                0x000000009d01a5f4                UDPOpenEx
                0x000000009d01a77c                UDPTask
                0x000000009d01a974                UDPIsOpened
                0x000000009d01a99c                UDPClose
                0x000000009d01a9d4                UDPInit
                0x000000009d01aa24                UDPSetTxBuffer
                0x000000009d01aa50                UDPSetRxBuffer
                0x000000009d01aa80                UDPIsPutReady
                0x000000009d01aae0                UDPPut
                0x000000009d01ab30                UDPPutArray
                0x000000009d01ab98                UDPPutString
                0x000000009d01abcc                UDPFlush
                0x000000009d01ad08                UDPIsGetReady
                0x000000009d01ad60                UDPGet
                0x000000009d01adbc                UDPGetArray
                0x000000009d01ae20                UDPDiscard
                0x000000009d01ae6c                UDPProcess
 .text          0x000000009d01b054      0xa3c build/default/debug/net/Helpers.o
                0x000000009d01b054                LFSRRand
                0x000000009d01b090                LFSRSeedRand
                0x000000009d01b0dc                GenerateRandomDWORD
                0x000000009d01b2b8                StringToIPAddress
                0x000000009d01b49c                Base64Decode
                0x000000009d01b5f4                uitoa
                0x000000009d01b684                hexatob
                0x000000009d01b6f4                btohexa_high
                0x000000009d01b710                btohexa_low
                0x000000009d01b72c                stricmppgm2ram
                0x000000009d01b7cc                swaps
                0x000000009d01b7e4                swapl
                0x000000009d01b824                CalcIPChecksum
                0x000000009d01b8a8                strupr
                0x000000009d01b8f0                FormatNetBIOSName
                0x000000009d01b97c                strnchr
                0x000000009d01b9b8                strncpy_m

.text._vfscanf_cdnopuxX
                0x000000009d01ba90      0x908
 .text._vfscanf_cdnopuxX
                0x000000009d01ba90      0x908 /opt/microchip/xc32/v2.40/bin/bin/../../lib/gcc/pic32mx/4.8.3/../../../../pic32mx/lib/libc.a(doscan_cdnopuxX.eo)
                0x000000009d01ba90                _vfscanf_cdnopuxX

.text           0x000000009d01c398      0xd98
 .text          0x000000009d01c398      0x6dc build/default/debug/main.o
                0x000000009d01c398                usb_write
                0x000000009d01c440                main
                0x000000009d01c73c                _general_exception_handler
                0x000000009d01c930                USBCBSuspend
                0x000000009d01c938                USBCBWakeFromSuspend
                0x000000009d01c940                USBCB_SOF_Handler
                0x000000009d01c948                USBCBErrorHandler
                0x000000009d01c950                USBCBCheckOtherReq
                0x000000009d01c96c                USBCBStdSetDscHandler
                0x000000009d01c974                USBCBInitEP
                0x000000009d01c990                USBCBSendResume
                0x000000009d01ca28                USER_USB_CALLBACK_EVENT_HANDLER
 .text          0x000000009d01ca74      0x6bc build/default/debug/usb/usb_function_cdc.o
                0x000000009d01ca74                USBCheckCDCRequest
                0x000000009d01cc90                CDCInitEP
                0x000000009d01ccfc                USBCDCEventHandler
                0x000000009d01cd6c                getsUSBUSART
                0x000000009d01ce2c                putUSBUSART
                0x000000009d01ce68                putsUSBUSART
                0x000000009d01cee0                putrsUSBUSART
                0x000000009d01cf58                CDCTxService

.rodata         0x000000009d01d130      0x57c
 .rodata        0x000000009d01d130      0x57c build/default/debug/net/HTTP2.o

.text           0x000000009d01d6ac      0x564
 .text          0x000000009d01d6ac      0x564 build/default/debug/net/SNTP.o
                0x000000009d01d6ac                SNTPClient
                0x000000009d01db24                SNTPGetUTCSeconds

.rodata         0x000000009d01dc10      0x558
 .rodata        0x000000009d01dc10      0x558 /opt/microchip/xc32/v2.40/bin/bin/../../lib/gcc/pic32mx/4.8.3/../../../../pic32mx/lib/libmchp_peripheral_32MX270F256B.a(int_tbl_lib.o)
                0x000000009d01dc10                __IntSrcTbl
                0x000000009d01df58                __IntVectorTbl

.text.dp32mul   0x000000009d01e168      0x4b8
 .text.dp32mul  0x000000009d01e168      0x4b8 /opt/microchip/xc32/v2.40/bin/bin/../../lib/gcc/pic32mx/4.8.3/../../../../pic32mx/lib/libm.a(dp32div.o)
                0x000000009d01e168                dpdiv
                0x000000009d01e168                __divdf3

.text           0x000000009d01e620      0x8bc
 .text          0x000000009d01e620      0x464 /opt/microchip/xc32/v2.40/bin/bin/../../lib/gcc/pic32mx/4.8.3/libgcc.a(_umoddi3.o)
                0x000000009d01e620                __umoddi3
 .text          0x000000009d01ea84      0x458 /opt/microchip/xc32/v2.40/bin/bin/../../lib/gcc/pic32mx/4.8.3/libgcc.a(_udivdi3.o)
                0x000000009d01ea84                __udivdi3

.text.dp32subadd
                0x000000009d01eedc      0x430
 .text.dp32subadd
                0x000000009d01eedc      0x430 /opt/microchip/xc32/v2.40/bin/bin/../../lib/gcc/pic32mx/4.8.3/../../../../pic32mx/lib/libm.a(dp32subadd.o)
                0x000000009d01eedc                dpsub
                0x000000009d01eedc                __subdf3
                0x000000009d01eee4                __adddf3
                0x000000009d01eee4                dpadd

.text           0x000000009d01f30c      0x3d4
 .text          0x000000009d01f30c      0x3d4 build/default/debug/net/ARP.o
                0x000000009d01f30c                ARPInit
                0x000000009d01f33c                ARPIsResolved
                0x000000009d01f3c0                SwapARPPacket
                0x000000009d01f4c4                ARPSendPkt
                0x000000009d01f50c                ARPResolve
                0x000000009d01f598                ARPProcess

.rodata         0x000000009d01f6e0      0x3b0
 .rodata        0x000000009d01f6e0      0x3b0 build/default/debug/fatfs/ffunicode.o

.text           0x000000009d01fa90      0x378
 .text          0x000000009d01fa90      0x378 build/default/debug/uart/debug_uart.o
                0x000000009d01fa90                debug_uart_init
                0x000000009d01fb44                debug_uart_getc
                0x000000009d01fb94                debug_uart_get_str
                0x000000009d01fc18                IntUart2Handler

.text.dp32mul   0x000000009d01fe08      0x32c
 .text.dp32mul  0x000000009d01fe08      0x32c /opt/microchip/xc32/v2.40/bin/bin/../../lib/gcc/pic32mx/4.8.3/../../../../pic32mx/lib/libm.a(dp32mul.o)
                0x000000009d01fe08                dpmul
                0x000000009d01fe08                __muldf3

.dinit          0x000000009d020134      0x300
 .dinit         0x000000009d020134      0x300 data_init

.text           0x000000009d020434      0x2f4
 .text          0x000000009d020434      0x2f4 build/default/debug/uart/uart.o
                0x000000009d020434                uart_init
                0x000000009d0204dc                uart_getc
                0x000000009d02052c                MINITEL_RX_EVENT
                0x000000009d02056c                IntUart1Handler

.text.asctime   0x000000009d020728      0x2e4
 .text.asctime  0x000000009d020728      0x2e4 /opt/microchip/xc32/v2.40/bin/bin/../../lib/gcc/pic32mx/4.8.3/../../../../pic32mx/lib/libc.a(ctime.o)
                0x000000009d020728                asctime

.text           0x000000009d020a0c      0x570
 .text          0x000000009d020a0c      0x2c0 build/default/debug/net/Tick.o
                0x000000009d020a80                TickInit
                0x000000009d020ae8                TickGet
                0x000000009d020b08                TickGetDiv256
                0x000000009d020b48                TickGetDiv64K
                0x000000009d020b88                TickConvertToMilliseconds
                0x000000009d020c3c                _T1Interrupt
 .text          0x000000009d020ccc      0x2b0 build/default/debug/net/StackTsk.o
                0x000000009d020ccc                StackInit
                0x000000009d020d70                StackTask
                0x000000009d020f58                StackApplications

.text           0x000000009d020f7c      0x2a8
 .text          0x000000009d020f7c      0x2a8 build/default/debug/time/time.o
                0x000000009d020f7c                time_init
                0x000000009d020fec                millis
                0x000000009d020ff8                uptime
                0x000000009d021004                rtccGetTimestamp
                0x000000009d0210a0                get_fattime
                0x000000009d021114                _Timer3Handler

.text.fpsubadd  0x000000009d021224      0x278
 .text.fpsubadd
                0x000000009d021224      0x278 /opt/microchip/xc32/v2.40/bin/bin/../../lib/gcc/pic32mx/4.8.3/../../../../pic32mx/lib/libm.a(fp32subadd.o)
                0x000000009d021224                __subsf3
                0x000000009d021224                fpsub
                0x000000009d02122c                fpadd
                0x000000009d02122c                __addsf3

.text._RtccSetTimeAndDate
                0x000000009d02149c      0x23c
 .text._RtccSetTimeAndDate
                0x000000009d02149c      0x23c /opt/microchip/xc32/v2.40/bin/bin/../../lib/gcc/pic32mx/4.8.3/../../../../pic32mx/lib/libmchp_peripheral_32MX270F256B.a(_rtcc_set_time_and_date_lib.o)
                0x000000009d02149c                _RtccSetTimeAndDate

.text           0x000000009d0216d8      0x234
 .text          0x000000009d0216d8      0x234 build/default/debug/config/config.o
                0x000000009d0216d8                loadDefaultSettings
                0x000000009d021820                CheckAndLoadDefaults

.text.scale     0x000000009d02190c      0x230
 .text.scale    0x000000009d02190c      0x230 /opt/microchip/xc32/v2.40/bin/bin/../../lib/gcc/pic32mx/4.8.3/../../../../pic32mx/lib/libc.a(doprnt_cdfFnopsuxX.eo)

.text.fp32div   0x000000009d021b3c      0x230
 .text.fp32div  0x000000009d021b3c      0x230 /opt/microchip/xc32/v2.40/bin/bin/../../lib/gcc/pic32mx/4.8.3/../../../../pic32mx/lib/libm.a(fp32div.o)
                0x000000009d021b3c                __divsf3
                0x000000009d021b3c                fpdiv

.text           0x000000009d021d6c      0x424
 .text          0x000000009d021d6c      0x218 build/default/debug/fatfs/ffunicode.o
                0x000000009d021d6c                ff_uni2oem
                0x000000009d021de8                ff_oem2uni
                0x000000009d021e3c                ff_wtoupper
 .text          0x000000009d021f84      0x20c build/default/debug/net/IP.o
                0x000000009d021fc8                IPGetHeader
                0x000000009d0220a4                IPPutHeader
                0x000000009d02216c                IPSetRxBuffer

.rodata         0x000000009d022190      0x3ec
 .rodata        0x000000009d022190      0x200 build/default/debug/main.o
 .rodata        0x000000009d022390      0x1ec build/default/debug/net/ENC28J60.o

.rodata         0x000000009d02257c      0x1e8
 .rodata        0x000000009d02257c      0x1e8 build/default/debug/CustomHTTPApp.o

.text.mktime    0x000000009d022764      0x1e4
 .text.mktime   0x000000009d022764      0x1e4 /opt/microchip/xc32/v2.40/bin/bin/../../lib/gcc/pic32mx/4.8.3/../../../../pic32mx/lib/libc.a(mktime.o)
                0x000000009d022764                mktime

.text           0x000000009d022948      0x384
 .text          0x000000009d022948      0x1e0 build/default/debug/common.o
                0x000000009d022948                FormatSpiFlashDisk
                0x000000009d0229b4                BcdToByte
                0x000000009d0229d4                ByteToBcd
                0x000000009d022a08                StringToMACAddress
 .text          0x000000009d022b28      0x1a4 build/default/debug/fatfs/diskio.o
                0x000000009d022b28                disk_status
                0x000000009d022b30                disk_initialize
                0x000000009d022b64                disk_read
                0x000000009d022bdc                disk_write
                0x000000009d022c60                disk_ioctl
                0x000000009d022cc4                disk_timerproc

.text           0x000000009d022ccc      0x18c
 .text          0x000000009d022ccc      0x18c build/default/debug/net/GenericTCPServer.o
                0x000000009d022ccc                GenericTCPServer

.text._filbuf   0x000000009d022e58      0x188
 .text._filbuf  0x000000009d022e58      0x188 /opt/microchip/xc32/v2.40/bin/bin/../../lib/gcc/pic32mx/4.8.3/../../../../pic32mx/lib/libc.a(filbuf.o)
                0x000000009d022e58                _filbuf

.text.gmtime    0x000000009d022fe0      0x180
 .text.gmtime   0x000000009d022fe0      0x180 /opt/microchip/xc32/v2.40/bin/bin/../../lib/gcc/pic32mx/4.8.3/../../../../pic32mx/lib/libc.a(ctime.o)
                0x000000009d022fe0                gmtime

.text           0x000000009d023160      0x2d0
 .text          0x000000009d023160      0x168 /opt/microchip/xc32/v2.40/bin/bin/../../lib/gcc/pic32mx/4.8.3/../../../../pic32mx/lib/libpic32.a(memcpy.o)
                0x000000009d023160                memcpy
 .text          0x000000009d0232c8      0x168 /opt/microchip/xc32/v2.40/bin/bin/../../lib/gcc/pic32mx/4.8.3/../../../../pic32mx/lib/libpic32.a(strlen.o)
                0x000000009d0232c8                strlen

.rodata         0x000000009d023430      0x160
 .rodata        0x000000009d023430      0x160 /opt/microchip/xc32/v2.40/bin/bin/../../lib/gcc/pic32mx/4.8.3/../../../../pic32mx/lib/libc.a(ldpowers.o)
                0x000000009d023430                _npowers_
                0x000000009d0234e0                _powers_

.text           0x000000009d023590      0x158
 .text          0x000000009d023590      0x158 build/default/debug/delay/delay.o
                0x000000009d023590                delay_us
                0x000000009d0235dc                delay_ms
                0x000000009d023618                DelayMs
                0x000000009d023658                pass_ms
                0x000000009d0236bc                SSleep

.text.read      0x000000009d0236e8      0x14c
 .text.read     0x000000009d0236e8      0x14c /opt/microchip/xc32/v2.40/bin/bin/../../lib/gcc/pic32mx/4.8.3/../../../../pic32mx/lib/libpic32.a(read.o)
                0x000000009d0236e8                read

.text.fputc     0x000000009d023834      0x144
 .text.fputc    0x000000009d023834      0x144 /opt/microchip/xc32/v2.40/bin/bin/../../lib/gcc/pic32mx/4.8.3/../../../../pic32mx/lib/libc.a(_fputc_simple.o)
                0x000000009d023834                fputc

.rodata         0x000000009d023978      0x13c
 .rodata        0x000000009d023978      0x13c build/default/debug/usb/event.o

.text._flsbuf   0x000000009d023ab4      0x12c
 .text._flsbuf  0x000000009d023ab4      0x12c /opt/microchip/xc32/v2.40/bin/bin/../../lib/gcc/pic32mx/4.8.3/../../../../pic32mx/lib/libc.a(_flsbuf_simple.o)
                0x000000009d023ab4                _flsbuf

.text.dpcmp     0x000000009d023be0      0x12c
 .text.dpcmp    0x000000009d023be0      0x12c /opt/microchip/xc32/v2.40/bin/bin/../../lib/gcc/pic32mx/4.8.3/../../../../pic32mx/lib/libm.a(dpcmp.o)
                0x000000009d023be0                __eqdf2
                0x000000009d023be0                __gtdf2
                0x000000009d023be0                __ltdf2
                0x000000009d023be0                dpcmp
                0x000000009d023be0                __ledf2
                0x000000009d023be0                __nedf2
                0x000000009d023be0                __gedf2

.text           0x000000009d023d0c      0x234
 .text          0x000000009d023d0c      0x120 /opt/microchip/xc32/v2.40/bin/bin/../../lib/gcc/pic32mx/4.8.3/../../../../pic32mx/lib/libpic32.a(strcmp.o)
                0x000000009d023d0c                strcmp
 .text          0x000000009d023e2c      0x114 build/default/debug/usb/event.o
                0x000000009d023e2c                USB_ApplicationEventHandler

.text._NVMOperation
                0x000000009d023f40      0x114
 .text._NVMOperation
                0x000000009d023f40      0x114 /opt/microchip/xc32/v2.40/bin/bin/../../lib/gcc/pic32mx/4.8.3/../../../../pic32mx/lib/libmchp_peripheral_32MX270F256B.a(nvm_operation_lib.o)
                0x000000009d023f40                _NVMOperation

.rodata         0x000000009d024054      0x104
 .rodata        0x000000009d024054      0x104 build/default/debug/fatfs/ff.o

.text           0x000000009d024158      0x104
 .text          0x000000009d024158      0x104 build/default/debug/nvram/nvram.o
                0x000000009d024158                eprom_read
                0x000000009d024188                eprom_write

.rodata         0x000000009d02425c      0x104
 .rodata        0x000000009d02425c      0x104 /opt/microchip/xc32/v2.40/bin/bin/../../lib/gcc/pic32mx/4.8.3/../../../../pic32mx/lib/libc.a(ctype.o)
                0x000000009d02425c                _ctype

.text.fgetc     0x000000009d024360      0x104
 .text.fgetc    0x000000009d024360      0x104 /opt/microchip/xc32/v2.40/bin/bin/../../lib/gcc/pic32mx/4.8.3/../../../../pic32mx/lib/libc.a(fgetc.o)
                0x000000009d024360                fgetc

.text._RtccWaitClockOff
                0x000000009d024464       0xfc
 .text._RtccWaitClockOff
                0x000000009d024464       0xfc /opt/microchip/xc32/v2.40/bin/bin/../../lib/gcc/pic32mx/4.8.3/../../../../pic32mx/lib/libmchp_peripheral_32MX270F256B.a(_rtcc_wait_clock_off_lib.o)
                0x000000009d024464                _RtccWaitClockOff

.text           0x000000009d024560       0xf4
 .text          0x000000009d024560       0xf4 build/default/debug/net/ICMP.o
                0x000000009d024560                ICMPProcess

.rodata         0x000000009d024658       0xf0
 .rodata        0x000000009d024658       0xf0 /opt/microchip/xc32/v2.40/bin/bin/../../lib/gcc/pic32mx/4.8.3/../../../../pic32mx/lib/libc.a(doprnt_cdfFnopsuxX.eo)

.text.__fixdfdi
                0x000000009d024748       0xe8
 .text.__fixdfdi
                0x000000009d024748       0xe8 /opt/microchip/xc32/v2.40/bin/bin/../../lib/gcc/pic32mx/4.8.3/../../../../pic32mx/lib/libe.a(_fixdfdi.o)
                0x000000009d024748                __fixdfdi

.text.general_exception
                0x000000009d024830       0xdc
 .text.general_exception
                0x000000009d024830       0xdc /opt/microchip/xc32/v2.40/bin/bin/../../lib/gcc/pic32mx/4.8.3/../../../../pic32mx/lib/libpic32.a(general-exception.o)
                0x000000009d024830                _general_exception_context

.text._mon_putc
                0x000000009d02490c       0xd8
 .text._mon_putc
                0x000000009d02490c       0xd8 /opt/microchip/xc32/v2.40/bin/bin/../../lib/gcc/pic32mx/4.8.3/../../../../pic32mx/lib/libpic32.a(_mon_putc.o)
                0x000000009d02490c                _mon_putc

.rodata         0x000000009d0249e4       0xd4
 .rodata        0x000000009d0249e4       0xd4 build/default/debug/usb/usb_descriptors.o
                0x000000009d0249e4                USB_SD_Ptr
                0x000000009d0249f0                USB_CD_Ptr
                0x000000009d0249f4                sd002
                0x000000009d024a28                sd001
                0x000000009d024a5c                sd000
                0x000000009d024a60                configDescriptor1
                0x000000009d024aa4                device_dsc

.text.atol      0x000000009d024ab8       0xac
 .text.atol     0x000000009d024ab8       0xac /opt/microchip/xc32/v2.40/bin/bin/../../lib/gcc/pic32mx/4.8.3/../../../../pic32mx/lib/libc.a(atol.o)
                0x000000009d024ab8                atol

.text.fptodp    0x000000009d024b64       0xac
 .text.fptodp   0x000000009d024b64       0xac /opt/microchip/xc32/v2.40/bin/bin/../../lib/gcc/pic32mx/4.8.3/../../../../pic32mx/lib/libm.a(fptodp.o)
                0x000000009d024b64                __extendsfdf2
                0x000000009d024b64                fptodp

.text           0x000000009d024c10       0xa8
 .text          0x000000009d024c10       0xa8 /opt/microchip/xc32/v2.40/bin/bin/../../lib/gcc/pic32mx/4.8.3/../../../../pic32mx/lib/libpic32.a(memset.o)
                0x000000009d024c10                memset

.text.atoi      0x000000009d024cb8       0xa8
 .text.atoi     0x000000009d024cb8       0xa8 /opt/microchip/xc32/v2.40/bin/bin/../../lib/gcc/pic32mx/4.8.3/../../../../pic32mx/lib/libc.a(atoi.o)
                0x000000009d024cb8                atoi

.text.range     0x000000009d024d60       0xa8
 .text.range    0x000000009d024d60       0xa8 /opt/microchip/xc32/v2.40/bin/bin/../../lib/gcc/pic32mx/4.8.3/../../../../pic32mx/lib/libc.a(doscan_cdnopuxX.eo)

.text.libm      0x000000009d024e08       0xa8
 .text.libm     0x000000009d024e08       0xa8 /opt/microchip/xc32/v2.40/bin/bin/../../lib/gcc/pic32mx/4.8.3/../../../../pic32mx/lib/libm.a(dpfrexp.o)
                0x000000009d024e08                frexpl
                0x000000009d024e08                dpfrexp
                0x000000009d024e08                frexp

.text.fflush    0x000000009d024eb0       0xa0
 .text.fflush   0x000000009d024eb0       0xa0 /opt/microchip/xc32/v2.40/bin/bin/../../lib/gcc/pic32mx/4.8.3/../../../../pic32mx/lib/libc.a(fflush.o)
                0x000000009d024eb0                fflush

.text.write     0x000000009d024f50       0x9c
 .text.write    0x000000009d024f50       0x9c /opt/microchip/xc32/v2.40/bin/bin/../../lib/gcc/pic32mx/4.8.3/../../../../pic32mx/lib/libpic32.a(write.o)
                0x000000009d024f50                write

.text           0x000000009d024fec       0x98
 .text          0x000000009d024fec       0x98 /opt/microchip/xc32/v2.40/bin/bin/../../lib/gcc/pic32mx/4.8.3/../../../../pic32mx/lib/libpic32.a(memcmp.o)
                0x000000009d024fec                memcmp

.text.rand      0x000000009d025084       0x8c
 .text.rand     0x000000009d025084       0x8c /opt/microchip/xc32/v2.40/bin/bin/../../lib/gcc/pic32mx/4.8.3/../../../../pic32mx/lib/libc.a(rand.o)
                0x000000009d025084                rand

.text.__orderdf2
                0x000000009d025110       0x8c
 .text.__orderdf2
                0x000000009d025110       0x8c /opt/microchip/xc32/v2.40/bin/bin/../../lib/gcc/pic32mx/4.8.3/../../../../pic32mx/lib/libe.a(_orderdf2.o)
                0x000000009d025110                __orderdf2

.text           0x000000009d02519c       0x84
 .text          0x000000009d02519c       0x84 /opt/microchip/xc32/v2.40/bin/bin/../../lib/gcc/pic32mx/4.8.3/../../../../pic32mx/lib/libpic32.a(pic32_data_init.o)
                0x000000009d02519c                __pic32_data_init

.text._vsnprintf_cdnopuxX
                0x000000009d025220       0x84
 .text._vsnprintf_cdnopuxX
                0x000000009d025220       0x84 /opt/microchip/xc32/v2.40/bin/bin/../../lib/gcc/pic32mx/4.8.3/../../../../pic32mx/lib/libc.a(vsnprintf_cdnopuxX.eo)
                0x000000009d025220                _vsnprintf_cdnopuxX

.text.__fixunsdfdi
                0x000000009d0252a4       0x80
 .text.__fixunsdfdi
                0x000000009d0252a4       0x80 /opt/microchip/xc32/v2.40/bin/bin/../../lib/gcc/pic32mx/4.8.3/../../../../pic32mx/lib/libe.a(_fixunsdfdi.o)
                0x000000009d0252a4                __fixunsdfdi

.text.SoftReset
                0x000000009d025324       0x7c
 .text.SoftReset
                0x000000009d025324       0x7c /opt/microchip/xc32/v2.40/bin/bin/../../lib/gcc/pic32mx/4.8.3/../../../../pic32mx/lib/libmchp_peripheral_32MX270F256B.a(soft_reset_lib.o)
                0x000000009d025324                SoftReset

.text.litodp    0x000000009d0253a0       0x78
 .text.litodp   0x000000009d0253a0       0x78 /opt/microchip/xc32/v2.40/bin/bin/../../lib/gcc/pic32mx/4.8.3/../../../../pic32mx/lib/libm.a(litodp.o)
                0x000000009d0253a0                __floatsidf
                0x000000009d0253a0                litodp

.text.strncpy   0x000000009d025418       0x74
 .text.strncpy  0x000000009d025418       0x74 /opt/microchip/xc32/v2.40/bin/bin/../../lib/gcc/pic32mx/4.8.3/../../../../pic32mx/lib/libc.a(strncpy.o)
                0x000000009d025418                strncpy

.text.ungetc    0x000000009d02548c       0x74
 .text.ungetc   0x000000009d02548c       0x74 /opt/microchip/xc32/v2.40/bin/bin/../../lib/gcc/pic32mx/4.8.3/../../../../pic32mx/lib/libc.a(ungetc.o)
                0x000000009d02548c                ungetc

.text.dylen.part.0
                0x000000009d025500       0x68
 .text.dylen.part.0
                0x000000009d025500       0x68 /opt/microchip/xc32/v2.40/bin/bin/../../lib/gcc/pic32mx/4.8.3/../../../../pic32mx/lib/libc.a(ctime.o)

.text._sprintf_cdnopsuxX
                0x000000009d025568       0x68
 .text._sprintf_cdnopsuxX
                0x000000009d025568       0x68 /opt/microchip/xc32/v2.40/bin/bin/../../lib/gcc/pic32mx/4.8.3/../../../../pic32mx/lib/libc.a(sprintf_cdnopsuxX.eo)
                0x000000009d025568                _sprintf_cdnopuxX
                0x000000009d025568                _sprintf_cdnopsuxX

.text           0x000000009d0255d0       0x64
 .text          0x000000009d0255d0       0x64 /opt/microchip/xc32/v2.40/bin/bin/../../lib/gcc/pic32mx/4.8.3/libgcc.a(_floatundidf.o)
                0x000000009d0255d0                __floatundidf

.text.fputs     0x000000009d025634       0x60
 .text.fputs    0x000000009d025634       0x60 /opt/microchip/xc32/v2.40/bin/bin/../../lib/gcc/pic32mx/4.8.3/../../../../pic32mx/lib/libc.a(puts.o)
                0x000000009d025634                fputs

.text.wspace    0x000000009d025694       0x60
 .text.wspace   0x000000009d025694       0x60 /opt/microchip/xc32/v2.40/bin/bin/../../lib/gcc/pic32mx/4.8.3/../../../../pic32mx/lib/libc.a(doscan_cdnopuxX.eo)

.text.sitofp    0x000000009d0256f4       0x60
 .text.sitofp   0x000000009d0256f4       0x60 /opt/microchip/xc32/v2.40/bin/bin/../../lib/gcc/pic32mx/4.8.3/../../../../pic32mx/lib/libm.a(sitofp.o)
                0x000000009d0256f4                sitofp
                0x000000009d0256f4                __floatsisf
                0x000000009d0256f4                litofp

.text.main_entry
                0x000000009d025754       0x54
 .text.main_entry
                0x000000009d025754       0x54 /tmp/cc1HBx2X.o
                0x000000009d025788                __crt0_exit

.text._sscanf_cdnopuxX
                0x000000009d0257a8       0x54
 .text._sscanf_cdnopuxX
                0x000000009d0257a8       0x54 /opt/microchip/xc32/v2.40/bin/bin/../../lib/gcc/pic32mx/4.8.3/../../../../pic32mx/lib/libc.a(sscanf_cdnopuxX.eo)
                0x000000009d0257a8                _sscanf_cdnopuxX

.text           0x000000009d0257fc       0x4c
 .text          0x000000009d0257fc       0x4c /opt/microchip/xc32/v2.40/bin/bin/../../lib/gcc/pic32mx/4.8.3/libgcc.a(floatunsisf.o)
                0x000000009d0257fc                __floatunsisf

.rodata         0x000000009d025848       0x4c
 .rodata        0x000000009d025848       0x4c /opt/microchip/xc32/v2.40/bin/bin/../../lib/gcc/pic32mx/4.8.3/../../../../pic32mx/lib/libc.a(ctime.o)

.text._bootstrap_exception_handler
                0x000000009d025894       0x48
 .text._bootstrap_exception_handler
                0x000000009d025894       0x48 /opt/microchip/xc32/v2.40/bin/bin/../../lib/gcc/pic32mx/4.8.3/../../../../pic32mx/lib/libpic32.a(default-bootstrap-exception-handler.o)
                0x000000009d025894                _bootstrap_exception_handler

.vector_default
                0x000000009d0258dc       0x48
 .vector_default
                0x000000009d0258dc       0x48 /opt/microchip/xc32/v2.40/bin/bin/../../lib/gcc/pic32mx/4.8.3/../../../../pic32mx/lib/libpic32.a(defaultinterrupt.o)
                0x000000009d0258dc                _DefaultInterrupt

.text           0x000000009d025924       0x44
 .text          0x000000009d025924       0x44 /opt/microchip/xc32/v2.40/bin/bin/../../lib/gcc/pic32mx/4.8.3/../../../../pic32mx/lib/pic32_software_reset.o
                0x000000009d025924                __pic32_software_reset

.text.ctime     0x000000009d025968       0x44
 .text.ctime    0x000000009d025968       0x44 /opt/microchip/xc32/v2.40/bin/bin/../../lib/gcc/pic32mx/4.8.3/../../../../pic32mx/lib/libc.a(ctime.o)
                0x000000009d025968                ctime

.text.puts      0x000000009d0259ac       0x44
 .text.puts     0x000000009d0259ac       0x44 /opt/microchip/xc32/v2.40/bin/bin/../../lib/gcc/pic32mx/4.8.3/../../../../pic32mx/lib/libc.a(puts.o)
                0x000000009d0259ac                puts

.text           0x000000009d0259f0       0x44
 .text          0x000000009d0259f0       0x44 /opt/microchip/xc32/v2.40/bin/bin/../../lib/gcc/pic32mx/4.8.3/libgcc.a(floatunsidf.o)
                0x000000009d0259f0                __floatunsidf

.rodata         0x000000009d025a34       0x40
 .rodata        0x000000009d025a34       0x40 build/default/debug/common.o

.text.INTSetVectorPriority
                0x000000009d025a74       0x40
 .text.INTSetVectorPriority
                0x000000009d025a74       0x40 /opt/microchip/xc32/v2.40/bin/bin/../../lib/gcc/pic32mx/4.8.3/../../../../pic32mx/lib/libmchp_peripheral_32MX270F256B.a(int_tbl_lib.o)
                0x000000009d025a74                INTSetVectorPriority

.text.INTSetVectorSubPriority
                0x000000009d025ab4       0x40
 .text.INTSetVectorSubPriority
                0x000000009d025ab4       0x40 /opt/microchip/xc32/v2.40/bin/bin/../../lib/gcc/pic32mx/4.8.3/../../../../pic32mx/lib/libmchp_peripheral_32MX270F256B.a(int_tbl_lib.o)
                0x000000009d025ab4                INTSetVectorSubPriority

.text._printf_cdfFnopuxX
                0x000000009d025af4       0x40
 .text._printf_cdfFnopuxX
                0x000000009d025af4       0x40 /opt/microchip/xc32/v2.40/bin/bin/../../lib/gcc/pic32mx/4.8.3/../../../../pic32mx/lib/libc.a(printf_cdfFnopuxX.eo)
                0x000000009d025af4                _printf_cdfFnopuxX
                0x000000009d025af4                _printf_cdnopuxX

.text.INTEnable
                0x000000009d025b34       0x3c
 .text.INTEnable
                0x000000009d025b34       0x3c /opt/microchip/xc32/v2.40/bin/bin/../../lib/gcc/pic32mx/4.8.3/../../../../pic32mx/lib/libmchp_peripheral_32MX270F256B.a(int_tbl_lib.o)
                0x000000009d025b34                INTEnable

.text.localtime
                0x000000009d025b70       0x3c
 .text.localtime
                0x000000009d025b70       0x3c /opt/microchip/xc32/v2.40/bin/bin/../../lib/gcc/pic32mx/4.8.3/../../../../pic32mx/lib/libc.a(ctime.o)
                0x000000009d025b70                localtime

.text.INTEnableSystemMultiVectoredInt
                0x000000009d025bac       0x34
 .text.INTEnableSystemMultiVectoredInt
                0x000000009d025bac       0x34 /opt/microchip/xc32/v2.40/bin/bin/../../lib/gcc/pic32mx/4.8.3/../../../../pic32mx/lib/libmchp_peripheral_32MX270F256B.a(int_enable_mv_int_lib.o)
                0x000000009d025bac                INTEnableSystemMultiVectoredInt

.text.NVMWriteWord
                0x000000009d025be0       0x34
 .text.NVMWriteWord
                0x000000009d025be0       0x34 /opt/microchip/xc32/v2.40/bin/bin/../../lib/gcc/pic32mx/4.8.3/../../../../pic32mx/lib/libmchp_peripheral_32MX270F256B.a(nvm_write_word_lib.o)
                0x000000009d025be0                NVMWriteWord

.text.INTGetVectorPriority
                0x000000009d025c14       0x30
 .text.INTGetVectorPriority
                0x000000009d025c14       0x30 /opt/microchip/xc32/v2.40/bin/bin/../../lib/gcc/pic32mx/4.8.3/../../../../pic32mx/lib/libmchp_peripheral_32MX270F256B.a(int_tbl_lib.o)
                0x000000009d025c14                INTGetVectorPriority

.text.INTGetVectorSubPriority
                0x000000009d025c44       0x30
 .text.INTGetVectorSubPriority
                0x000000009d025c44       0x30 /opt/microchip/xc32/v2.40/bin/bin/../../lib/gcc/pic32mx/4.8.3/../../../../pic32mx/lib/libmchp_peripheral_32MX270F256B.a(int_tbl_lib.o)
                0x000000009d025c44                INTGetVectorSubPriority

.text.INTClearFlag
                0x000000009d025c74       0x2c
 .text.INTClearFlag
                0x000000009d025c74       0x2c /opt/microchip/xc32/v2.40/bin/bin/../../lib/gcc/pic32mx/4.8.3/../../../../pic32mx/lib/libmchp_peripheral_32MX270F256B.a(int_tbl_lib.o)
                0x000000009d025c74                INTClearFlag

.text.INTSetFlag
                0x000000009d025ca0       0x2c
 .text.INTSetFlag
                0x000000009d025ca0       0x2c /opt/microchip/xc32/v2.40/bin/bin/../../lib/gcc/pic32mx/4.8.3/../../../../pic32mx/lib/libmchp_peripheral_32MX270F256B.a(int_tbl_lib.o)
                0x000000009d025ca0                INTSetFlag

.text.INTGetFlag
                0x000000009d025ccc       0x2c
 .text.INTGetFlag
                0x000000009d025ccc       0x2c /opt/microchip/xc32/v2.40/bin/bin/../../lib/gcc/pic32mx/4.8.3/../../../../pic32mx/lib/libmchp_peripheral_32MX270F256B.a(int_tbl_lib.o)
                0x000000009d025ccc                INTGetFlag

.text.INTGetEnable
                0x000000009d025cf8       0x2c
 .text.INTGetEnable
                0x000000009d025cf8       0x2c /opt/microchip/xc32/v2.40/bin/bin/../../lib/gcc/pic32mx/4.8.3/../../../../pic32mx/lib/libmchp_peripheral_32MX270F256B.a(int_tbl_lib.o)
                0x000000009d025cf8                INTGetEnable

.text.NVMErasePage
                0x000000009d025d24       0x2c
 .text.NVMErasePage
                0x000000009d025d24       0x2c /opt/microchip/xc32/v2.40/bin/bin/../../lib/gcc/pic32mx/4.8.3/../../../../pic32mx/lib/libmchp_peripheral_32MX270F256B.a(nvm_erase_page_lib.o)
                0x000000009d025d24                NVMErasePage

.text.RtccSetTimeDate
                0x000000009d025d50       0x28
 .text.RtccSetTimeDate
                0x000000009d025d50       0x28 /opt/microchip/xc32/v2.40/bin/bin/../../lib/gcc/pic32mx/4.8.3/../../../../pic32mx/lib/libmchp_peripheral_32MX270F256B.a(rtcc_set_time_date_lib.o)
                0x000000009d025d50                RtccSetTimeDate

.text._snprintf_cdnopuxX
                0x000000009d025d78       0x28
 .text._snprintf_cdnopuxX
                0x000000009d025d78       0x28 /opt/microchip/xc32/v2.40/bin/bin/../../lib/gcc/pic32mx/4.8.3/../../../../pic32mx/lib/libc.a(snprintf_cdnopuxX.eo)
                0x000000009d025d78                _snprintf_cdnopuxX

.rodata         0x000000009d025da0       0x24
 .rodata        0x000000009d025da0       0x24 build/default/debug/net/TCP.o
                0x000000009d025da0                TCPSocketInitializer

.text.tolower   0x000000009d025dc4       0x24
 .text.tolower  0x000000009d025dc4       0x24 /opt/microchip/xc32/v2.40/bin/bin/../../lib/gcc/pic32mx/4.8.3/../../../../pic32mx/lib/libc.a(ctypef.o)
                0x000000009d025dc4                tolower

.text.toupper   0x000000009d025de8       0x24
 .text.toupper  0x000000009d025de8       0x24 /opt/microchip/xc32/v2.40/bin/bin/../../lib/gcc/pic32mx/4.8.3/../../../../pic32mx/lib/libc.a(ctypef.o)
                0x000000009d025de8                toupper

.text.INTRestoreInterrupts
                0x000000009d025e0c       0x1c
 .text.INTRestoreInterrupts
                0x000000009d025e0c       0x1c /opt/microchip/xc32/v2.40/bin/bin/../../lib/gcc/pic32mx/4.8.3/../../../../pic32mx/lib/libmchp_peripheral_32MX270F256B.a(int_restore_interrupts_lib.o)
                0x000000009d025e0c                INTRestoreInterrupts

.text.srand     0x000000009d025e28       0x1c
 .text.srand    0x000000009d025e28       0x1c /opt/microchip/xc32/v2.40/bin/bin/../../lib/gcc/pic32mx/4.8.3/../../../../pic32mx/lib/libc.a(rand.o)
                0x000000009d025e28                srand

.text           0x000000009d025e44       0x18
 .text          0x000000009d025e44       0x18 /opt/microchip/xc32/v2.40/bin/bin/../../lib/gcc/pic32mx/4.8.3/../../../../pic32mx/lib/libpic32.a(default-nmi-handler.o)
                0x000000009d025e44                _nmi_handler

.text.isalnum   0x000000009d025e5c       0x18
 .text.isalnum  0x000000009d025e5c       0x18 /opt/microchip/xc32/v2.40/bin/bin/../../lib/gcc/pic32mx/4.8.3/../../../../pic32mx/lib/libc.a(ctypef.o)
                0x000000009d025e5c                isalnum

.text.isalpha   0x000000009d025e74       0x18
 .text.isalpha  0x000000009d025e74       0x18 /opt/microchip/xc32/v2.40/bin/bin/../../lib/gcc/pic32mx/4.8.3/../../../../pic32mx/lib/libc.a(ctypef.o)
                0x000000009d025e74                isalpha

.text.iscntrl   0x000000009d025e8c       0x18
 .text.iscntrl  0x000000009d025e8c       0x18 /opt/microchip/xc32/v2.40/bin/bin/../../lib/gcc/pic32mx/4.8.3/../../../../pic32mx/lib/libc.a(ctypef.o)
                0x000000009d025e8c                iscntrl

.text.isdigit   0x000000009d025ea4       0x18
 .text.isdigit  0x000000009d025ea4       0x18 /opt/microchip/xc32/v2.40/bin/bin/../../lib/gcc/pic32mx/4.8.3/../../../../pic32mx/lib/libc.a(ctypef.o)
                0x000000009d025ea4                isdigit

.text.isgraph   0x000000009d025ebc       0x18
 .text.isgraph  0x000000009d025ebc       0x18 /opt/microchip/xc32/v2.40/bin/bin/../../lib/gcc/pic32mx/4.8.3/../../../../pic32mx/lib/libc.a(ctypef.o)
                0x000000009d025ebc                isgraph

.text.islower   0x000000009d025ed4       0x18
 .text.islower  0x000000009d025ed4       0x18 /opt/microchip/xc32/v2.40/bin/bin/../../lib/gcc/pic32mx/4.8.3/../../../../pic32mx/lib/libc.a(ctypef.o)
                0x000000009d025ed4                islower

.text.isprint   0x000000009d025eec       0x18
 .text.isprint  0x000000009d025eec       0x18 /opt/microchip/xc32/v2.40/bin/bin/../../lib/gcc/pic32mx/4.8.3/../../../../pic32mx/lib/libc.a(ctypef.o)
                0x000000009d025eec                isprint

.text.ispunct   0x000000009d025f04       0x18
 .text.ispunct  0x000000009d025f04       0x18 /opt/microchip/xc32/v2.40/bin/bin/../../lib/gcc/pic32mx/4.8.3/../../../../pic32mx/lib/libc.a(ctypef.o)
                0x000000009d025f04                ispunct

.text.isspace   0x000000009d025f1c       0x18
 .text.isspace  0x000000009d025f1c       0x18 /opt/microchip/xc32/v2.40/bin/bin/../../lib/gcc/pic32mx/4.8.3/../../../../pic32mx/lib/libc.a(ctypef.o)
                0x000000009d025f1c                isspace

.text.isupper   0x000000009d025f34       0x18
 .text.isupper  0x000000009d025f34       0x18 /opt/microchip/xc32/v2.40/bin/bin/../../lib/gcc/pic32mx/4.8.3/../../../../pic32mx/lib/libc.a(ctypef.o)
                0x000000009d025f34                isupper

.text.isxdigit  0x000000009d025f4c       0x18
 .text.isxdigit
                0x000000009d025f4c       0x18 /opt/microchip/xc32/v2.40/bin/bin/../../lib/gcc/pic32mx/4.8.3/../../../../pic32mx/lib/libc.a(ctypef.o)
                0x000000009d025f4c                isxdigit

.rodata         0x000000009d025f64       0x14
 .rodata        0x000000009d025f64       0x14 build/default/debug/config/config.o

.text._RtccSetClockWait
                0x000000009d025f78       0x14
 .text._RtccSetClockWait
                0x000000009d025f78       0x14 /opt/microchip/xc32/v2.40/bin/bin/../../lib/gcc/pic32mx/4.8.3/../../../../pic32mx/lib/libmchp_peripheral_32MX270F256B.a(_rtcc_wait_clock_off_lib.o)
                0x000000009d025f78                _RtccSetClockWait

.rodata         0x000000009d025f8c        0x8
 .rodata        0x000000009d025f8c        0x8 build/default/debug/net/MPFS2.o

.text.ReadCoreTimer
                0x000000009d025f94        0x8
 .text.ReadCoreTimer
                0x000000009d025f94        0x8 /opt/microchip/xc32/v2.40/bin/bin/../../lib/gcc/pic32mx/4.8.3/../../../../pic32mx/lib/libmchp_peripheral.a(read_core_timer_lib.o)
                0x000000009d025f94                ReadCoreTimer

.text.INTEnableInterrupts
                0x000000009d025f9c        0x8
 .text.INTEnableInterrupts
                0x000000009d025f9c        0x8 /opt/microchip/xc32/v2.40/bin/bin/../../lib/gcc/pic32mx/4.8.3/../../../../pic32mx/lib/libmchp_peripheral_32MX270F256B.a(int_enable_interrupts_lib.o)
                0x000000009d025f9c                INTEnableInterrupts

.text.INTDisableInterrupts
                0x000000009d025fa4        0x8
 .text.INTDisableInterrupts
                0x000000009d025fa4        0x8 /opt/microchip/xc32/v2.40/bin/bin/../../lib/gcc/pic32mx/4.8.3/../../../../pic32mx/lib/libmchp_peripheral_32MX270F256B.a(int_disable_interrupts_lib.o)
                0x000000009d025fa4                INTDisableInterrupts

.text._on_reset
                0x000000009d025fac        0x8
 .text._on_reset
                0x000000009d025fac        0x8 /opt/microchip/xc32/v2.40/bin/bin/../../lib/gcc/pic32mx/4.8.3/../../../../pic32mx/lib/libpic32.a(default-on-reset.o)
                0x000000009d025fac                _on_reset

.text._on_bootstrap
                0x000000009d025fb4        0x8
 .text._on_bootstrap
                0x000000009d025fb4        0x8 /opt/microchip/xc32/v2.40/bin/bin/../../lib/gcc/pic32mx/4.8.3/../../../../pic32mx/lib/libpic32.a(default-on-bootstrap.o)
                0x000000009d025fb4                _on_bootstrap

.text.isascii   0x000000009d025fbc        0x8
 .text.isascii  0x000000009d025fbc        0x8 /opt/microchip/xc32/v2.40/bin/bin/../../lib/gcc/pic32mx/4.8.3/../../../../pic32mx/lib/libc.a(ctypef.o)
                0x000000009d025fbc                isascii

.text.toascii   0x000000009d025fc4        0x8
 .text.toascii  0x000000009d025fc4        0x8 /opt/microchip/xc32/v2.40/bin/bin/../../lib/gcc/pic32mx/4.8.3/../../../../pic32mx/lib/libc.a(ctypef.o)
                0x000000009d025fc4                toascii

.text._tolower  0x000000009d025fcc        0x8
 .text._tolower
                0x000000009d025fcc        0x8 /opt/microchip/xc32/v2.40/bin/bin/../../lib/gcc/pic32mx/4.8.3/../../../../pic32mx/lib/libc.a(ctypef.o)
                0x000000009d025fcc                _tolower

.text._toupper  0x000000009d025fd4        0x8
 .text._toupper
                0x000000009d025fd4        0x8 /opt/microchip/xc32/v2.40/bin/bin/../../lib/gcc/pic32mx/4.8.3/../../../../pic32mx/lib/libc.a(ctypef.o)
                0x000000009d025fd4                _toupper

.rodata         0x000000009d025fe0       0x10
 .rodata        0x000000009d025fe0        0x8 /opt/microchip/xc32/v2.40/bin/bin/../../lib/gcc/pic32mx/4.8.3/libgcc.a(_floatundidf.o)
 .rodata        0x000000009d025fe8        0x8 /opt/microchip/xc32/v2.40/bin/bin/../../lib/gcc/pic32mx/4.8.3/libgcc.a(floatunsidf.o)

.text%z323      0x0000000000000000        0x0
 .text          0x0000000000000000        0x0 /opt/microchip/xc32/v2.40/bin/bin/../../lib/gcc/pic32mx/4.8.3/../../../../pic32mx/lib/libm.a(litodp.o)

.text%z324      0x0000000000000000        0x0
 .text          0x0000000000000000        0x0 /opt/microchip/xc32/v2.40/bin/bin/../../lib/gcc/pic32mx/4.8.3/../../../../pic32mx/lib/libpic32.a(_mon_putc.o)

.text%z325      0x0000000000000000        0x0
 .text          0x0000000000000000        0x0 /opt/microchip/xc32/v2.40/bin/bin/../../lib/gcc/pic32mx/4.8.3/../../../../pic32mx/lib/libpic32.a(write.o)

.text%z326      0x0000000000000000        0x0
 .text          0x0000000000000000        0x0 /opt/microchip/xc32/v2.40/bin/bin/../../lib/gcc/pic32mx/4.8.3/../../../../pic32mx/lib/libpic32.a(read.o)

.text%z327      0x0000000000000000        0x0
 .text          0x0000000000000000        0x0 /opt/microchip/xc32/v2.40/bin/bin/../../lib/gcc/pic32mx/4.8.3/../../../../pic32mx/lib/libe.a(_fixdfdi.o)

.text%z328      0x0000000000000000        0x0
 .text          0x0000000000000000        0x0 /opt/microchip/xc32/v2.40/bin/bin/../../lib/gcc/pic32mx/4.8.3/../../../../pic32mx/lib/libe.a(_orderdf2.o)

.text%z329      0x0000000000000000        0x0
 .text          0x0000000000000000        0x0 /opt/microchip/xc32/v2.40/bin/bin/../../lib/gcc/pic32mx/4.8.3/../../../../pic32mx/lib/libe.a(_fixunsdfdi.o)

.text%z330      0x0000000000000000        0x0
 .text          0x0000000000000000        0x0 /opt/microchip/xc32/v2.40/bin/bin/../../lib/gcc/pic32mx/4.8.3/../../../../pic32mx/lib/libm.a(sitofp.o)

.text%z331      0x0000000000000000        0x0
 .text          0x0000000000000000        0x0 /opt/microchip/xc32/v2.40/bin/bin/../../lib/gcc/pic32mx/4.8.3/../../../../pic32mx/lib/libm.a(fptodp.o)

.text%z332      0x0000000000000000        0x0
 .text          0x0000000000000000        0x0 /opt/microchip/xc32/v2.40/bin/bin/../../lib/gcc/pic32mx/4.8.3/../../../../pic32mx/lib/libm.a(fp32subadd.o)

.text%z333      0x0000000000000000        0x0
 .text          0x0000000000000000        0x0 /opt/microchip/xc32/v2.40/bin/bin/../../lib/gcc/pic32mx/4.8.3/../../../../pic32mx/lib/libm.a(fp32div.o)

.text%z334      0x0000000000000000        0x0
 .text          0x0000000000000000        0x0 /opt/microchip/xc32/v2.40/bin/bin/../../lib/gcc/pic32mx/4.8.3/../../../../pic32mx/lib/libm.a(dpcmp.o)

.text%z335      0x0000000000000000        0x0
 .text          0x0000000000000000        0x0 /opt/microchip/xc32/v2.40/bin/bin/../../lib/gcc/pic32mx/4.8.3/../../../../pic32mx/lib/libm.a(dp32subadd.o)

.text%z336      0x0000000000000000        0x0
 .text          0x0000000000000000        0x0 /opt/microchip/xc32/v2.40/bin/bin/../../lib/gcc/pic32mx/4.8.3/../../../../pic32mx/lib/libm.a(dp32mul.o)

.text%z337      0x0000000000000000        0x0
 .text          0x0000000000000000        0x0 /opt/microchip/xc32/v2.40/bin/bin/../../lib/gcc/pic32mx/4.8.3/../../../../pic32mx/lib/libm.a(dp32div.o)

.text%z338      0x0000000000000000        0x0
 .text          0x0000000000000000        0x0 /opt/microchip/xc32/v2.40/bin/bin/../../lib/gcc/pic32mx/4.8.3/../../../../pic32mx/lib/libm.a(dpfrexp.o)

.text%z339      0x0000000000000000        0x0
 .text          0x0000000000000000        0x0 /opt/microchip/xc32/v2.40/bin/bin/../../lib/gcc/pic32mx/4.8.3/../../../../pic32mx/lib/libc.a(doprnt_cdfFnopsuxX.eo)

.text%z340      0x0000000000000000        0x0
 .text          0x0000000000000000        0x0 /opt/microchip/xc32/v2.40/bin/bin/../../lib/gcc/pic32mx/4.8.3/../../../../pic32mx/lib/libc.a(fflush.o)

.text%z341      0x0000000000000000        0x0
 .text          0x0000000000000000        0x0 /opt/microchip/xc32/v2.40/bin/bin/../../lib/gcc/pic32mx/4.8.3/../../../../pic32mx/lib/libc.a(filbuf.o)

.text%z342      0x0000000000000000        0x0
 .text          0x0000000000000000        0x0 /opt/microchip/xc32/v2.40/bin/bin/../../lib/gcc/pic32mx/4.8.3/../../../../pic32mx/lib/libc.a(ungetc.o)

.text%z343      0x0000000000000000        0x0
 .text          0x0000000000000000        0x0 /opt/microchip/xc32/v2.40/bin/bin/../../lib/gcc/pic32mx/4.8.3/../../../../pic32mx/lib/libc.a(ldpowers.o)

.text%z344      0x0000000000000000        0x0
 .text          0x0000000000000000        0x0 /opt/microchip/xc32/v2.40/bin/bin/../../lib/gcc/pic32mx/4.8.3/../../../../pic32mx/lib/libc.a(ctypef.o)

.text%z345      0x0000000000000000        0x0
 .text          0x0000000000000000        0x0 /opt/microchip/xc32/v2.40/bin/bin/../../lib/gcc/pic32mx/4.8.3/../../../../pic32mx/lib/libc.a(fgetc.o)

.text%z346      0x0000000000000000        0x0
 .text          0x0000000000000000        0x0 /opt/microchip/xc32/v2.40/bin/bin/../../lib/gcc/pic32mx/4.8.3/../../../../pic32mx/lib/libc.a(_flsbuf_simple.o)

.text%z347      0x0000000000000000        0x0
 .text          0x0000000000000000        0x0 /opt/microchip/xc32/v2.40/bin/bin/../../lib/gcc/pic32mx/4.8.3/../../../../pic32mx/lib/libc.a(doscan_cdnopuxX.eo)

.text%z348      0x0000000000000000        0x0
 .text          0x0000000000000000        0x0 /opt/microchip/xc32/v2.40/bin/bin/../../lib/gcc/pic32mx/4.8.3/../../../../pic32mx/lib/libc.a(_fputc_simple.o)

.text%z349      0x0000000000000000        0x0
 .text          0x0000000000000000        0x0 /opt/microchip/xc32/v2.40/bin/bin/../../lib/gcc/pic32mx/4.8.3/../../../../pic32mx/lib/libc.a(_iob.o)

.text%z350      0x0000000000000000        0x0
 .text          0x0000000000000000        0x0 /opt/microchip/xc32/v2.40/bin/bin/../../lib/gcc/pic32mx/4.8.3/../../../../pic32mx/lib/libc.a(vsnprintf_cdnopuxX.eo)

.text%z351      0x0000000000000000        0x0
 .text          0x0000000000000000        0x0 /opt/microchip/xc32/v2.40/bin/bin/../../lib/gcc/pic32mx/4.8.3/../../../../pic32mx/lib/libc.a(sscanf_cdnopuxX.eo)

.text%z352      0x0000000000000000        0x0
 .text          0x0000000000000000        0x0 /opt/microchip/xc32/v2.40/bin/bin/../../lib/gcc/pic32mx/4.8.3/../../../../pic32mx/lib/libc.a(sprintf_cdnopsuxX.eo)

.text%z353      0x0000000000000000        0x0
 .text          0x0000000000000000        0x0 /opt/microchip/xc32/v2.40/bin/bin/../../lib/gcc/pic32mx/4.8.3/../../../../pic32mx/lib/libc.a(snprintf_cdnopuxX.eo)

.text%z354      0x0000000000000000        0x0
 .text          0x0000000000000000        0x0 /opt/microchip/xc32/v2.40/bin/bin/../../lib/gcc/pic32mx/4.8.3/../../../../pic32mx/lib/libc.a(printf_cdfFnopuxX.eo)

.text%z355      0x0000000000000000        0x0
 .text          0x0000000000000000        0x0 /opt/microchip/xc32/v2.40/bin/bin/../../lib/gcc/pic32mx/4.8.3/../../../../pic32mx/lib/libc.a(strncpy.o)

.text%z356      0x0000000000000000        0x0
 .text          0x0000000000000000        0x0 /opt/microchip/xc32/v2.40/bin/bin/../../lib/gcc/pic32mx/4.8.3/../../../../pic32mx/lib/libc.a(rand.o)

.text%z357      0x0000000000000000        0x0
 .text          0x0000000000000000        0x0 /opt/microchip/xc32/v2.40/bin/bin/../../lib/gcc/pic32mx/4.8.3/../../../../pic32mx/lib/libc.a(puts.o)

.text%z358      0x0000000000000000        0x0
 .text          0x0000000000000000        0x0 /opt/microchip/xc32/v2.40/bin/bin/../../lib/gcc/pic32mx/4.8.3/../../../../pic32mx/lib/libc.a(mktime.o)

.text%z359      0x0000000000000000        0x0
 .text          0x0000000000000000        0x0 /opt/microchip/xc32/v2.40/bin/bin/../../lib/gcc/pic32mx/4.8.3/../../../../pic32mx/lib/libc.a(ctype.o)

.text%z360      0x0000000000000000        0x0
 .text          0x0000000000000000        0x0 /opt/microchip/xc32/v2.40/bin/bin/../../lib/gcc/pic32mx/4.8.3/../../../../pic32mx/lib/libc.a(ctime.o)

.text%z361      0x0000000000000000        0x0
 .text          0x0000000000000000        0x0 /opt/microchip/xc32/v2.40/bin/bin/../../lib/gcc/pic32mx/4.8.3/../../../../pic32mx/lib/libc.a(atol.o)

.text%z362      0x0000000000000000        0x0
 .text          0x0000000000000000        0x0 /opt/microchip/xc32/v2.40/bin/bin/../../lib/gcc/pic32mx/4.8.3/../../../../pic32mx/lib/libc.a(atoi.o)

.text%z363      0x0000000000000000        0x0
 .text          0x0000000000000000        0x0 /opt/microchip/xc32/v2.40/bin/bin/../../lib/gcc/pic32mx/4.8.3/../../../../pic32mx/lib/libpic32.a(defaultinterrupt.o)

.text%z364      0x0000000000000000        0x0
 .text          0x0000000000000000        0x0 /opt/microchip/xc32/v2.40/bin/bin/../../lib/gcc/pic32mx/4.8.3/../../../../pic32mx/lib/libpic32.a(vector43.o)

.text%z365      0x0000000000000000        0x0
 .text          0x0000000000000000        0x0 /opt/microchip/xc32/v2.40/bin/bin/../../lib/gcc/pic32mx/4.8.3/../../../../pic32mx/lib/libpic32.a(vector42.o)

.text%z366      0x0000000000000000        0x0
 .text          0x0000000000000000        0x0 /opt/microchip/xc32/v2.40/bin/bin/../../lib/gcc/pic32mx/4.8.3/../../../../pic32mx/lib/libpic32.a(vector41.o)

.text%z367      0x0000000000000000        0x0
 .text          0x0000000000000000        0x0 /opt/microchip/xc32/v2.40/bin/bin/../../lib/gcc/pic32mx/4.8.3/../../../../pic32mx/lib/libpic32.a(vector40.o)

.text%z368      0x0000000000000000        0x0
 .text          0x0000000000000000        0x0 /opt/microchip/xc32/v2.40/bin/bin/../../lib/gcc/pic32mx/4.8.3/../../../../pic32mx/lib/libpic32.a(vector39.o)

.text%z369      0x0000000000000000        0x0
 .text          0x0000000000000000        0x0 /opt/microchip/xc32/v2.40/bin/bin/../../lib/gcc/pic32mx/4.8.3/../../../../pic32mx/lib/libpic32.a(vector38.o)

.text%z370      0x0000000000000000        0x0
 .text          0x0000000000000000        0x0 /opt/microchip/xc32/v2.40/bin/bin/../../lib/gcc/pic32mx/4.8.3/../../../../pic32mx/lib/libpic32.a(vector36.o)

.text%z371      0x0000000000000000        0x0
 .text          0x0000000000000000        0x0 /opt/microchip/xc32/v2.40/bin/bin/../../lib/gcc/pic32mx/4.8.3/../../../../pic32mx/lib/libpic32.a(vector35.o)

.text%z372      0x0000000000000000        0x0
 .text          0x0000000000000000        0x0 /opt/microchip/xc32/v2.40/bin/bin/../../lib/gcc/pic32mx/4.8.3/../../../../pic32mx/lib/libpic32.a(vector34.o)

.text%z373      0x0000000000000000        0x0
 .text          0x0000000000000000        0x0 /opt/microchip/xc32/v2.40/bin/bin/../../lib/gcc/pic32mx/4.8.3/../../../../pic32mx/lib/libpic32.a(vector33.o)

.text%z374      0x0000000000000000        0x0
 .text          0x0000000000000000        0x0 /opt/microchip/xc32/v2.40/bin/bin/../../lib/gcc/pic32mx/4.8.3/../../../../pic32mx/lib/libpic32.a(vector31.o)

.text%z375      0x0000000000000000        0x0
 .text          0x0000000000000000        0x0 /opt/microchip/xc32/v2.40/bin/bin/../../lib/gcc/pic32mx/4.8.3/../../../../pic32mx/lib/libpic32.a(vector29.o)

.text%z376      0x0000000000000000        0x0
 .text          0x0000000000000000        0x0 /opt/microchip/xc32/v2.40/bin/bin/../../lib/gcc/pic32mx/4.8.3/../../../../pic32mx/lib/libpic32.a(vector28.o)

.text%z377      0x0000000000000000        0x0
 .text          0x0000000000000000        0x0 /opt/microchip/xc32/v2.40/bin/bin/../../lib/gcc/pic32mx/4.8.3/../../../../pic32mx/lib/libpic32.a(vector27.o)

.text%z378      0x0000000000000000        0x0
 .text          0x0000000000000000        0x0 /opt/microchip/xc32/v2.40/bin/bin/../../lib/gcc/pic32mx/4.8.3/../../../../pic32mx/lib/libpic32.a(vector26.o)

.text%z379      0x0000000000000000        0x0
 .text          0x0000000000000000        0x0 /opt/microchip/xc32/v2.40/bin/bin/../../lib/gcc/pic32mx/4.8.3/../../../../pic32mx/lib/libpic32.a(vector25.o)

.text%z380      0x0000000000000000        0x0
 .text          0x0000000000000000        0x0 /opt/microchip/xc32/v2.40/bin/bin/../../lib/gcc/pic32mx/4.8.3/../../../../pic32mx/lib/libpic32.a(vector24.o)

.text%z381      0x0000000000000000        0x0
 .text          0x0000000000000000        0x0 /opt/microchip/xc32/v2.40/bin/bin/../../lib/gcc/pic32mx/4.8.3/../../../../pic32mx/lib/libpic32.a(vector23.o)

.text%z382      0x0000000000000000        0x0
 .text          0x0000000000000000        0x0 /opt/microchip/xc32/v2.40/bin/bin/../../lib/gcc/pic32mx/4.8.3/../../../../pic32mx/lib/libpic32.a(vector22.o)

.text%z383      0x0000000000000000        0x0
 .text          0x0000000000000000        0x0 /opt/microchip/xc32/v2.40/bin/bin/../../lib/gcc/pic32mx/4.8.3/../../../../pic32mx/lib/libpic32.a(vector21.o)

.text%z384      0x0000000000000000        0x0
 .text          0x0000000000000000        0x0 /opt/microchip/xc32/v2.40/bin/bin/../../lib/gcc/pic32mx/4.8.3/../../../../pic32mx/lib/libpic32.a(vector20.o)

.text%z385      0x0000000000000000        0x0
 .text          0x0000000000000000        0x0 /opt/microchip/xc32/v2.40/bin/bin/../../lib/gcc/pic32mx/4.8.3/../../../../pic32mx/lib/libpic32.a(vector19.o)

.text%z386      0x0000000000000000        0x0
 .text          0x0000000000000000        0x0 /opt/microchip/xc32/v2.40/bin/bin/../../lib/gcc/pic32mx/4.8.3/../../../../pic32mx/lib/libpic32.a(vector18.o)

.text%z387      0x0000000000000000        0x0
 .text          0x0000000000000000        0x0 /opt/microchip/xc32/v2.40/bin/bin/../../lib/gcc/pic32mx/4.8.3/../../../../pic32mx/lib/libpic32.a(vector17.o)

.text%z388      0x0000000000000000        0x0
 .text          0x0000000000000000        0x0 /opt/microchip/xc32/v2.40/bin/bin/../../lib/gcc/pic32mx/4.8.3/../../../../pic32mx/lib/libpic32.a(vector16.o)

.text%z389      0x0000000000000000        0x0
 .text          0x0000000000000000        0x0 /opt/microchip/xc32/v2.40/bin/bin/../../lib/gcc/pic32mx/4.8.3/../../../../pic32mx/lib/libpic32.a(vector15.o)

.text%z390      0x0000000000000000        0x0
 .text          0x0000000000000000        0x0 /opt/microchip/xc32/v2.40/bin/bin/../../lib/gcc/pic32mx/4.8.3/../../../../pic32mx/lib/libpic32.a(vector14.o)

.text%z391      0x0000000000000000        0x0
 .text          0x0000000000000000        0x0 /opt/microchip/xc32/v2.40/bin/bin/../../lib/gcc/pic32mx/4.8.3/../../../../pic32mx/lib/libpic32.a(vector13.o)

.text%z392      0x0000000000000000        0x0
 .text          0x0000000000000000        0x0 /opt/microchip/xc32/v2.40/bin/bin/../../lib/gcc/pic32mx/4.8.3/../../../../pic32mx/lib/libpic32.a(vector11.o)

.text%z393      0x0000000000000000        0x0
 .text          0x0000000000000000        0x0 /opt/microchip/xc32/v2.40/bin/bin/../../lib/gcc/pic32mx/4.8.3/../../../../pic32mx/lib/libpic32.a(vector10.o)

.text%z394      0x0000000000000000        0x0
 .text          0x0000000000000000        0x0 /opt/microchip/xc32/v2.40/bin/bin/../../lib/gcc/pic32mx/4.8.3/../../../../pic32mx/lib/libpic32.a(vector9.o)

.text%z395      0x0000000000000000        0x0
 .text          0x0000000000000000        0x0 /opt/microchip/xc32/v2.40/bin/bin/../../lib/gcc/pic32mx/4.8.3/../../../../pic32mx/lib/libpic32.a(vector8.o)

.text%z396      0x0000000000000000        0x0
 .text          0x0000000000000000        0x0 /opt/microchip/xc32/v2.40/bin/bin/../../lib/gcc/pic32mx/4.8.3/../../../../pic32mx/lib/libpic32.a(vector7.o)

.text%z397      0x0000000000000000        0x0
 .text          0x0000000000000000        0x0 /opt/microchip/xc32/v2.40/bin/bin/../../lib/gcc/pic32mx/4.8.3/../../../../pic32mx/lib/libpic32.a(vector6.o)

.text%z398      0x0000000000000000        0x0
 .text          0x0000000000000000        0x0 /opt/microchip/xc32/v2.40/bin/bin/../../lib/gcc/pic32mx/4.8.3/../../../../pic32mx/lib/libpic32.a(vector5.o)

.text%z399      0x0000000000000000        0x0
 .text          0x0000000000000000        0x0 /opt/microchip/xc32/v2.40/bin/bin/../../lib/gcc/pic32mx/4.8.3/../../../../pic32mx/lib/libpic32.a(vector3.o)

.text%z400      0x0000000000000000        0x0
 .text          0x0000000000000000        0x0 /opt/microchip/xc32/v2.40/bin/bin/../../lib/gcc/pic32mx/4.8.3/../../../../pic32mx/lib/libpic32.a(vector2.o)

.text%z401      0x0000000000000000        0x0
 .text          0x0000000000000000        0x0 /opt/microchip/xc32/v2.40/bin/bin/../../lib/gcc/pic32mx/4.8.3/../../../../pic32mx/lib/libpic32.a(vector1.o)

.text%z402      0x0000000000000000        0x0
 .text          0x0000000000000000        0x0 /opt/microchip/xc32/v2.40/bin/bin/../../lib/gcc/pic32mx/4.8.3/../../../../pic32mx/lib/libpic32.a(vector0.o)

.text%z403      0x0000000000000000        0x0
 .text          0x0000000000000000        0x0 /opt/microchip/xc32/v2.40/bin/bin/../../lib/gcc/pic32mx/4.8.3/../../../../pic32mx/lib/libpic32.a(general-exception.o)

.text%z404      0x0000000000000000        0x0
 .text          0x0000000000000000        0x0 /opt/microchip/xc32/v2.40/bin/bin/../../lib/gcc/pic32mx/4.8.3/../../../../pic32mx/lib/libpic32.a(xc32_uart.o)

.text%z405      0x0000000000000000        0x0
 .text          0x0000000000000000        0x0 /opt/microchip/xc32/v2.40/bin/bin/../../lib/gcc/pic32mx/4.8.3/../../../../pic32mx/lib/libpic32.a(default-on-bootstrap.o)

.text%z406      0x0000000000000000        0x0
 .text          0x0000000000000000        0x0 /opt/microchip/xc32/v2.40/bin/bin/../../lib/gcc/pic32mx/4.8.3/../../../../pic32mx/lib/libpic32.a(default-on-reset.o)

.text%z407      0x0000000000000000        0x0
 .text          0x0000000000000000        0x0 /opt/microchip/xc32/v2.40/bin/bin/../../lib/gcc/pic32mx/4.8.3/../../../../pic32mx/lib/libpic32.a(default-bootstrap-exception-handler.o)

.text%z408      0x0000000000000000        0x0
 .text          0x0000000000000000        0x0 /opt/microchip/xc32/v2.40/bin/bin/../../lib/gcc/pic32mx/4.8.3/../../../../pic32mx/lib/libmchp_peripheral_32MX270F256B.a(_rtcc_wait_clock_off_lib.o)

.text%z409      0x0000000000000000        0x0
 .text          0x0000000000000000        0x0 /opt/microchip/xc32/v2.40/bin/bin/../../lib/gcc/pic32mx/4.8.3/../../../../pic32mx/lib/libmchp_peripheral_32MX270F256B.a(_rtcc_set_time_and_date_lib.o)

.text%z410      0x0000000000000000        0x0
 .text          0x0000000000000000        0x0 /opt/microchip/xc32/v2.40/bin/bin/../../lib/gcc/pic32mx/4.8.3/../../../../pic32mx/lib/libmchp_peripheral_32MX270F256B.a(nvm_write_word_lib.o)

.text%z411      0x0000000000000000        0x0
 .text          0x0000000000000000        0x0 /opt/microchip/xc32/v2.40/bin/bin/../../lib/gcc/pic32mx/4.8.3/../../../../pic32mx/lib/libmchp_peripheral_32MX270F256B.a(nvm_operation_lib.o)

.text%z412      0x0000000000000000        0x0
 .text          0x0000000000000000        0x0 /opt/microchip/xc32/v2.40/bin/bin/../../lib/gcc/pic32mx/4.8.3/../../../../pic32mx/lib/libmchp_peripheral_32MX270F256B.a(nvm_erase_page_lib.o)

.text%z413      0x0000000000000000        0x0
 .text          0x0000000000000000        0x0 /opt/microchip/xc32/v2.40/bin/bin/../../lib/gcc/pic32mx/4.8.3/../../../../pic32mx/lib/libmchp_peripheral_32MX270F256B.a(rtcc_set_time_date_lib.o)

.text%z414      0x0000000000000000        0x0
 .text          0x0000000000000000        0x0 /opt/microchip/xc32/v2.40/bin/bin/../../lib/gcc/pic32mx/4.8.3/../../../../pic32mx/lib/libmchp_peripheral_32MX270F256B.a(int_tbl_lib.o)

.text%z415      0x0000000000000000        0x0
 .text          0x0000000000000000        0x0 /opt/microchip/xc32/v2.40/bin/bin/../../lib/gcc/pic32mx/4.8.3/../../../../pic32mx/lib/libmchp_peripheral_32MX270F256B.a(int_enable_mv_int_lib.o)

.text%z416      0x0000000000000000        0x0
 .text          0x0000000000000000        0x0 /opt/microchip/xc32/v2.40/bin/bin/../../lib/gcc/pic32mx/4.8.3/../../../../pic32mx/lib/libmchp_peripheral_32MX270F256B.a(int_restore_interrupts_lib.o)

.text%z417      0x0000000000000000        0x0
 .text          0x0000000000000000        0x0 /opt/microchip/xc32/v2.40/bin/bin/../../lib/gcc/pic32mx/4.8.3/../../../../pic32mx/lib/libmchp_peripheral_32MX270F256B.a(int_disable_interrupts_lib.o)

.text%z418      0x0000000000000000        0x0
 .text          0x0000000000000000        0x0 /opt/microchip/xc32/v2.40/bin/bin/../../lib/gcc/pic32mx/4.8.3/../../../../pic32mx/lib/libmchp_peripheral_32MX270F256B.a(int_enable_interrupts_lib.o)

.text%z419      0x0000000000000000        0x0
 .text          0x0000000000000000        0x0 /opt/microchip/xc32/v2.40/bin/bin/../../lib/gcc/pic32mx/4.8.3/../../../../pic32mx/lib/libmchp_peripheral_32MX270F256B.a(soft_reset_lib.o)

.text%z420      0x0000000000000000        0x0
 .text          0x0000000000000000        0x0 /opt/microchip/xc32/v2.40/bin/bin/../../lib/gcc/pic32mx/4.8.3/../../../../pic32mx/lib/libmchp_peripheral.a(read_core_timer_lib.o)

.text%z421      0x0000000000000000        0x0
 .text          0x0000000000000000        0x0 /opt/microchip/xc32/v2.40/bin/bin/../../lib/gcc/pic32mx/4.8.3/../../../../pic32mx/lib/./proc/32MX270F256B/processor.o

.text%z422      0x0000000000000000        0x0
 .text          0x0000000000000000        0x0 /tmp/cccJkBig.o

.text%z423      0x0000000000000000        0x0
 .text          0x0000000000000000        0x0 /tmp/cciMKlRo.o

.text%z424      0x0000000000000000        0x0
 .text          0x0000000000000000        0x0 /tmp/cc1HBx2X.o

.text%z425      0x0000000000000000        0x0
 .text          0x0000000000000000        0x0 build/default/debug/usb/usb_descriptors.o

.text%z426      0x0000000000000000        0x0
 .text          0x0000000000000000        0x0 build/default/debug/net/ZeroconfMulticastDNS.o

.text%z427      0x0000000000000000        0x0
 .text          0x0000000000000000        0x0 build/default/debug/net/ZeroconfLinkLocal.o

.text%z428      0x0000000000000000        0x0
 .text          0x0000000000000000        0x0 build/default/debug/net/ZeroconfHelper.o

.text%z429      0x0000000000000000        0x0
 .text          0x0000000000000000        0x0 build/default/debug/net/Telnet.o

.text%z430      0x0000000000000000        0x0
 .text          0x0000000000000000        0x0 build/default/debug/net/SSL.o

.text%z431      0x0000000000000000        0x0
 .text          0x0000000000000000        0x0 build/default/debug/net/SMTP.o

.text%z432      0x0000000000000000        0x0
 .text          0x0000000000000000        0x0 build/default/debug/net/RSA.o

.text%z433      0x0000000000000000        0x0
 .text          0x0000000000000000        0x0 build/default/debug/net/Reboot.o

.text%z434      0x0000000000000000        0x0
 .text          0x0000000000000000        0x0 build/default/debug/net/Random.o

.text%z435      0x0000000000000000        0x0
 .text          0x0000000000000000        0x0 build/default/debug/net/NBNS.o

.text%z436      0x0000000000000000        0x0
 .text          0x0000000000000000        0x0 build/default/debug/MPFSImg2.o

.text%z437      0x0000000000000000        0x0
 .text          0x0000000000000000        0x0 build/default/debug/net/Hashes.o

.text%z438      0x0000000000000000        0x0
 .text          0x0000000000000000        0x0 build/default/debug/net/FTP.o

.text%z439      0x0000000000000000        0x0
 .text          0x0000000000000000        0x0 build/default/debug/net/BigInt.o

.text%z440      0x0000000000000000        0x0
 .text          0x0000000000000000        0x0 build/default/debug/net/BerkeleyAPI.o

.text%z441      0x0000000000000000        0x0
 .text          0x0000000000000000        0x0 build/default/debug/net/AutoIP.o

.text%z442      0x0000000000000000        0x0
 .text          0x0000000000000000        0x0 build/default/debug/net/ARCFOUR.o

.text%z443      0x0000000000000000        0x0
 .text          0x0000000000000000        0x0 build/default/debug/net/Announce.o

.text%z444      0x0000000000000000        0x0
 .text          0x0000000000000000        0x0 build/default/debug/fatfs/ffsystem.o

.text%z445      0x0000000000000000        0x0
 .text          0x0000000000000000        0x0 /opt/microchip/xc32/v2.40/bin/bin/../../lib/gcc/pic32mx/4.8.3/../../../../pic32mx/lib/debug-exception-return.o
